

Microchip MPLAB XC8 Assembler V2.20 build 20200408173844 
                                                                                               Mon Oct 17 15:54:49 2022

Microchip MPLAB XC8 C Compiler v2.20 (Free license) build 20200408173844 Og1 
     1                           	processor	18F4520
     2                           	fnconf	rparam,??,?,0
     3                           	pagewidth 120
     4                           	opt	flic
     5                           	psect	cinit,global,reloc=2,class=CODE,delta=1
     6                           	psect	bssCOMRAM,global,class=COMRAM,space=1,delta=1,lowdata,noexec
     7                           	psect	bssBIGRAM,global,class=BIGRAM,space=1,delta=1,lowdata,noexec
     8                           	psect	cstackBANK0,global,class=BANK0,space=1,delta=1,lowdata,noexec
     9                           	psect	cstackCOMRAM,global,class=COMRAM,space=1,delta=1,lowdata,noexec
    10                           	psect	text0,global,reloc=2,class=CODE,delta=1
    11                           	psect	text1,global,reloc=2,class=CODE,delta=1
    12                           	psect	text2,global,reloc=2,class=CODE,delta=1
    13                           	psect	text3,global,reloc=2,class=CODE,delta=1
    14                           	psect	text4,global,reloc=2,class=CODE,delta=1
    15                           	psect	text5,global,reloc=2,class=CODE,delta=1,group=1
    16                           	psect	text6,global,reloc=2,class=CODE,delta=1
    17                           	psect	text7,global,reloc=2,class=CODE,delta=1
    18                           	psect	text8,global,reloc=2,class=CODE,delta=1
    19                           	psect	text9,global,reloc=2,class=CODE,delta=1
    20                           	psect	text10,global,reloc=2,class=CODE,delta=1
    21                           	psect	text11,global,reloc=2,class=CODE,delta=1
    22                           	psect	text12,global,reloc=2,class=CODE,delta=1
    23                           	psect	text13,global,reloc=2,class=CODE,delta=1
    24                           	psect	text14,global,reloc=2,class=CODE,delta=1,group=1
    25                           	psect	intcode,global,reloc=2,class=CODE,delta=1
    26                           	psect	intcode_body,global,reloc=2,class=CODE,delta=1
    27                           	psect	intsave_regs,global,class=BIGRAM,space=1,delta=1,noexec
    28                           	psect	rparam,global,class=COMRAM,space=1,delta=1,noexec
    29                           	psect	temp,global,ovrld,common,class=COMRAM,space=1,delta=1
    30                           	psect	idloc,global,abs,ovrld,class=IDLOC,space=5,delta=1,noexec
    31                           	psect	config,global,abs,ovrld,class=CONFIG,space=4,delta=1,noexec
    32  0000                     
    33                           ; Version 2.40
    34                           ; Generated 17/11/2021 GMT
    35                           ; 
    36                           ; Copyright © 2021, Microchip Technology Inc. and its subsidiaries ("Microchip")
    37                           ; All rights reserved.
    38                           ; 
    39                           ; This software is developed by Microchip Technology Inc. and its subsidiaries ("Microch
      +                          ip").
    40                           ; 
    41                           ; Redistribution and use in source and binary forms, with or without modification, are
    42                           ; permitted provided that the following conditions are met:
    43                           ; 
    44                           ;     1. Redistributions of source code must retain the above copyright notice, this lis
      +                          t of
    45                           ;        conditions and the following disclaimer.
    46                           ; 
    47                           ;     2. Redistributions in binary form must reproduce the above copyright notice, this 
      +                          list
    48                           ;        of conditions and the following disclaimer in the documentation and/or other
    49                           ;        materials provided with the distribution. Publication is not required when
    50                           ;        this file is used in an embedded application.
    51                           ; 
    52                           ;     3. Microchip's name may not be used to endorse or promote products derived from th
      +                          is
    53                           ;        software without specific prior written permission.
    54                           ; 
    55                           ; THIS SOFTWARE IS PROVIDED BY MICROCHIP "AS IS" AND ANY EXPRESS OR IMPLIED WARRANTIES,
    56                           ; INCLUDING, BUT NOT LIMITED TO, THE IMPLIED WARRANTIES OF MERCHANTABILITY AND FITNESS F
      +                          OR
    57                           ; PURPOSE ARE DISCLAIMED.  IN NO EVENT SHALL MICROCHIP BE LIABLE FOR ANY DIRECT, INDIREC
      +                          T,
    58                           ; INCIDENTAL, SPECIAL, EXEMPLARY, OR CONSEQUENTIAL DAMAGES (INCLUDING BUT NOT LIMITED TO
    59                           ; PROCUREMENT OF SUBSTITUTE GOODS OR SERVICES; LOSS OF USE, DATA OR PROFITS; OR BUSINESS
    60                           ; INTERRUPTION) HOWSOEVER CAUSED AND ON ANY THEORY OF LIABILITY, WHETHER IN CONTRACT, ST
      +                          RICT
    61                           ; LIABILITY, OR TORT (INCLUDING NEGLIGENCE OR OTHERWISE) ARISING IN ANY WAY OUT OF THE U
      +                          SE OF
    62                           ; THIS SOFTWARE, EVEN IF ADVISED OF THE POSSIBILITY OF SUCH DAMAGE.
    63                           ; 
    64                           ; 
    65                           ; Code-generator required, PIC18F4520 Definitions
    66                           ; 
    67                           ; SFR Addresses
    68  0000                     
    69 ;;___wmul@product	offset	0
    70 ;;___wmul@multiplier	offset=-2 (param)
    71 ;;___wmul@multiplicand	offset=-4 (param)
    72 ;;task_delay@task_stack_size_296	offset	0
    73 ;;task_delay@pos_task_295	offset	2
    74 ;;task_delay@pos_task	offset	4
    75 ;;task_delay@task_stack_size	offset	6
    76 ;;task_delay@time	offset=-2 (param)
    77 ;;RR_scheduler@next_task	offset	0
    78 ;;___lwmod@counter	offset	0
    79 ;;___lwmod@dividend	offset=-2 (param)
    80 ;;___lwmod@divisor	offset=-4 (param)
    81 ;;RR_scheduler@next_task	offset	0
    82 ;;___lwmod@counter	offset	0
    83 ;;___lwmod@dividend	offset=-2 (param)
    84 ;;___lwmod@divisor	offset=-4 (param)
    85 ;;___wmul@product	offset	0
    86 ;;___wmul@multiplier	offset=-2 (param)
    87 ;;___wmul@multiplicand	offset=-4 (param)
    88  0000                     _TOS	set	4093
    89  0000                     _TMR0	set	4054
    90  0000                     _PORTDbits	set	3971
    91  0000                     _LATDbits	set	3980
    92  0000                     _TRISDbits	set	3989
    93  0000                     _STKPTR	set	4092
    94  0000                     _WREG	set	4072
    95  0000                     _STATUS	set	4056
    96  0000                     _BSR	set	4064
    97  0000                     _T0CONbits	set	4053
    98  0000                     _INTCON2bits	set	4081
    99  0000                     _INTCONbits	set	4082
   100                           
   101                           ; #config settings
   102                           
   103                           	psect	cinit
   104  0010CE                     __pcinit:
   105                           	callstack 0
   106  0010CE                     start_initialization:
   107                           	callstack 0
   108  0010CE                     __initialization:
   109                           	callstack 0
   110                           
   111                           ; Clear objects allocated to BIGRAM (338 bytes)
   112  0010CE  EE00  F0D3         	lfsr	0,__pbssBIGRAM
   113  0010D2  EE21 F052          	lfsr	2,338
   114  0010D6                     clear_0:
   115  0010D6  6AEE               	clrf	postinc0,c
   116  0010D8  50DD               	movf	postdec2,w,c
   117  0010DA  50D9               	movf	fsr2l,w,c
   118  0010DC  E1FC               	bnz	clear_0
   119  0010DE  50DA               	movf	fsr2h,w,c
   120  0010E0  E1FA               	bnz	clear_0
   121                           
   122                           ; Clear objects allocated to COMRAM (14 bytes)
   123  0010E2  EE00  F04A         	lfsr	0,__pbssCOMRAM
   124  0010E6  0E0E               	movlw	14
   125  0010E8                     clear_1:
   126  0010E8  6AEE               	clrf	postinc0,c
   127  0010EA  06E8               	decf	wreg,f,c
   128  0010EC  E1FD               	bnz	clear_1
   129  0010EE                     end_of_initialization:
   130                           	callstack 0
   131  0010EE                     __end_of__initialization:
   132                           	callstack 0
   133  0010EE  0100               	movlb	0
   134  0010F0  EFE3  F007         	goto	_main	;jump to C main() function
   135                           
   136                           	psect	bssCOMRAM
   137  00004A                     __pbssCOMRAM:
   138                           	callstack 0
   139  00004A                     _s:
   140                           	callstack 0
   141  00004A                     	ds	14
   142                           
   143                           	psect	bssBIGRAM
   144  0000D3                     __pbssBIGRAM:
   145                           	callstack 0
   146  0000D3                     _READY_queue:
   147                           	callstack 0
   148  0000D3                     	ds	338
   149                           
   150                           	psect	cstackBANK0
   151  000080                     __pcstackBANK0:
   152                           	callstack 0
   153  000080                     new_task@new_task:
   154                           	callstack 0
   155                           
   156                           ; 83 bytes @ 0x0
   157  000080                     	ds	83
   158                           
   159                           	psect	cstackCOMRAM
   160  000001                     __pcstackCOMRAM:
   161                           	callstack 0
   162  000001                     ??_isr_INT0:
   163  000001                     
   164                           ; 2 bytes @ 0x0
   165  000001                     	ds	15
   166  000010                     isr_INT0@task_stack_size:
   167                           	callstack 0
   168                           
   169                           ; 2 bytes @ 0xF
   170  000010                     	ds	2
   171  000012                     isr_INT0@task_stack_size_313:
   172                           	callstack 0
   173                           
   174                           ; 2 bytes @ 0x11
   175  000012                     	ds	2
   176  000014                     isr_INT0@task_stack_size_315:
   177                           	callstack 0
   178                           
   179                           ; 2 bytes @ 0x13
   180  000014                     	ds	2
   181  000016                     isr_INT0@task_stack_size_317:
   182                           	callstack 0
   183                           
   184                           ; 2 bytes @ 0x15
   185  000016                     	ds	2
   186  000018                     isr_INT0@i:
   187                           	callstack 0
   188                           
   189                           ; 2 bytes @ 0x17
   190  000018                     	ds	2
   191  00001A                     isr_INT0@pos_task:
   192                           	callstack 0
   193                           
   194                           ; 2 bytes @ 0x19
   195  00001A                     	ds	2
   196  00001C                     isr_INT0@pos_task_314:
   197                           	callstack 0
   198                           
   199                           ; 2 bytes @ 0x1B
   200  00001C                     	ds	2
   201  00001E                     isr_INT0@pos_task_312:
   202                           	callstack 0
   203                           
   204                           ; 2 bytes @ 0x1D
   205  00001E                     	ds	2
   206  000020                     isr_INT0@pos_task_316:
   207                           	callstack 0
   208                           
   209                           ; 2 bytes @ 0x1F
   210  000020                     	ds	2
   211  000022                     new_task@id:
   212                           	callstack 0
   213  000022                     sem_init@sem:
   214                           	callstack 0
   215                           
   216                           ; 2 bytes @ 0x21
   217  000022                     	ds	2
   218  000024                     new_task@prioridade:
   219                           	callstack 0
   220  000024                     sem_init@value:
   221                           	callstack 0
   222                           
   223                           ; 2 bytes @ 0x23
   224  000024                     	ds	2
   225  000026                     new_task@f:
   226                           	callstack 0
   227                           
   228                           ; 2 bytes @ 0x25
   229  000026                     	ds	2
   230  000028                     ??_new_task:
   231                           
   232                           ; 1 bytes @ 0x27
   233  000028                     	ds	2
   234  00002A                     
   235                           ; 1 bytes @ 0x29
   236 ;;
   237 ;;Main: autosize = 0, tempsize = 0, incstack = 0, save=0
   238 ;;
   239 ;; *************** function _main *****************
   240 ;; Defined at:
   241 ;;		line 5 in file "main.c"
   242 ;; Parameters:    Size  Location     Type
   243 ;;		None
   244 ;; Auto vars:     Size  Location     Type
   245 ;;		None
   246 ;; Return value:  Size  Location     Type
   247 ;;                  2   20[None  ] int 
   248 ;; Registers used:
   249 ;;		wreg, fsr0l, fsr0h, fsr1l, fsr1h, fsr2l, fsr2h, status,2, status,0, btemp, btemp+1, btemp+11, prodl, prodh, cstack
   250 ;; Tracked objects:
   251 ;;		On entry : 0/0
   252 ;;		On exit  : 0/0
   253 ;;		Unchanged: 0/0
   254 ;; Data sizes:     COMRAM   BANK0   BANK1   BANK2   BANK3   BANK4   BANK5
   255 ;;      Params:         0       0       0       0       0       0       0
   256 ;;      Locals:         0       0       0       0       0       0       0
   257 ;;      Temps:          0       0       0       0       0       0       0
   258 ;;      Totals:         0       0       0       0       0       0       0
   259 ;;Total ram usage:        0 bytes
   260 ;; Hardware stack levels required when called:   11
   261 ;; This function calls:
   262 ;;		_hardware_init
   263 ;;		_kernel_start
   264 ;;		_new_task
   265 ;;		_os_init
   266 ;;		_user_config
   267 ;; This function is called by:
   268 ;;		Startup code after reset
   269 ;; This function uses a non-reentrant model
   270 ;;
   271                           
   272                           	psect	text0
   273  000FC6                     __ptext0:
   274                           	callstack 0
   275  000FC6                     _main:
   276                           	callstack 20
   277  000FC6                     
   278                           ;main.c: 8:    os_init();
   279  000FC6  EC7A  F008         	call	_os_init	;wreg free
   280  000FCA                     
   281                           ;main.c: 11:    hardware_init();
   282  000FCA  ECA0  F008         	call	_hardware_init	;wreg free
   283  000FCE                     
   284                           ;main.c: 14:    user_config();
   285  000FCE  ECB2  F008         	call	_user_config	;wreg free
   286  000FD2                     
   287                           ;main.c: 17:    new_task(1, 5, aciona_led_1);
   288  000FD2  0E00               	movlw	0
   289  000FD4  6E23               	movwf	(new_task@id+1)^0,c
   290  000FD6  0E01               	movlw	1
   291  000FD8  6E22               	movwf	new_task@id^0,c
   292  000FDA  0E00               	movlw	0
   293  000FDC  6E25               	movwf	(new_task@prioridade+1)^0,c
   294  000FDE  0E05               	movlw	5
   295  000FE0  6E24               	movwf	new_task@prioridade^0,c
   296  000FE2  0E1A               	movlw	low _aciona_led_1
   297  000FE4  6E26               	movwf	new_task@f^0,c
   298  000FE6  0E11               	movlw	high _aciona_led_1
   299  000FE8  6E27               	movwf	(new_task@f+1)^0,c
   300  000FEA  ECA9  F007         	call	_new_task	;wreg free
   301  000FEE                     
   302                           ;main.c: 18:    new_task(2, 5, aciona_led_2);
   303  000FEE  0E00               	movlw	0
   304  000FF0  6E23               	movwf	(new_task@id+1)^0,c
   305  000FF2  0E02               	movlw	2
   306  000FF4  6E22               	movwf	new_task@id^0,c
   307  000FF6  0E00               	movlw	0
   308  000FF8  6E25               	movwf	(new_task@prioridade+1)^0,c
   309  000FFA  0E05               	movlw	5
   310  000FFC  6E24               	movwf	new_task@prioridade^0,c
   311  000FFE  0EA6               	movlw	low _aciona_led_2
   312  001000  6E26               	movwf	new_task@f^0,c
   313  001002  0E10               	movlw	high _aciona_led_2
   314  001004  6E27               	movwf	(new_task@f+1)^0,c
   315  001006  ECA9  F007         	call	_new_task	;wreg free
   316  00100A                     
   317                           ;main.c: 19:    new_task(3, 5, aciona_led_3);
   318  00100A  0E00               	movlw	0
   319  00100C  6E23               	movwf	(new_task@id+1)^0,c
   320  00100E  0E03               	movlw	3
   321  001010  6E22               	movwf	new_task@id^0,c
   322  001012  0E00               	movlw	0
   323  001014  6E25               	movwf	(new_task@prioridade+1)^0,c
   324  001016  0E05               	movlw	5
   325  001018  6E24               	movwf	new_task@prioridade^0,c
   326  00101A  0E70               	movlw	low _aciona_led_3
   327  00101C  6E26               	movwf	new_task@f^0,c
   328  00101E  0E10               	movlw	high _aciona_led_3
   329  001020  6E27               	movwf	(new_task@f+1)^0,c
   330  001022  ECA9  F007         	call	_new_task	;wreg free
   331  001026                     
   332                           ;main.c: 22:    kernel_start();
   333  001026  ECC7  F008         	call	_kernel_start	;wreg free
   334  00102A                     l21:
   335  00102A  EF15  F008         	goto	l21
   336  00102E  EF06  F000         	goto	start
   337  001032                     __end_of_main:
   338                           	callstack 0
   339                           
   340 ;; *************** function _user_config *****************
   341 ;; Defined at:
   342 ;;		line 6 in file "user_tasks.c"
   343 ;; Parameters:    Size  Location     Type
   344 ;;		None
   345 ;; Auto vars:     Size  Location     Type
   346 ;;		None
   347 ;; Return value:  Size  Location     Type
   348 ;;                  1    wreg      void 
   349 ;; Registers used:
   350 ;;		wreg, fsr2l, fsr2h, status,2, status,0, cstack
   351 ;; Tracked objects:
   352 ;;		On entry : 0/0
   353 ;;		On exit  : 0/0
   354 ;;		Unchanged: 0/0
   355 ;; Data sizes:     COMRAM   BANK0   BANK1   BANK2   BANK3   BANK4   BANK5
   356 ;;      Params:         0       0       0       0       0       0       0
   357 ;;      Locals:         0       0       0       0       0       0       0
   358 ;;      Temps:          0       0       0       0       0       0       0
   359 ;;      Totals:         0       0       0       0       0       0       0
   360 ;;Total ram usage:        0 bytes
   361 ;; Hardware stack levels used:    1
   362 ;; Hardware stack levels required when called:   10
   363 ;; This function calls:
   364 ;;		_sem_init
   365 ;; This function is called by:
   366 ;;		_main
   367 ;; This function uses a non-reentrant model
   368 ;;
   369                           
   370                           	psect	text1
   371  001164                     __ptext1:
   372                           	callstack 0
   373  001164                     _user_config:
   374                           	callstack 20
   375  001164                     
   376                           ;user_tasks.c: 8:    TRISDbits.RD0 = 0;
   377  001164  9095               	bcf	149,0,c	;volatile
   378                           
   379                           ;user_tasks.c: 9:    TRISDbits.RD1 = 0;
   380  001166  9295               	bcf	149,1,c	;volatile
   381                           
   382                           ;user_tasks.c: 10:    TRISDbits.RD2 = 0;
   383  001168  9495               	bcf	149,2,c	;# 
   384  00116A                     
   385                           ;user_tasks.c: 13:    sem_init(&s, 0);
   386  00116A  0E4A               	movlw	low _s
   387  00116C  6E22               	movwf	sem_init@sem^0,c
   388  00116E  0E00               	movlw	high _s
   389  001170  6E23               	movwf	(sem_init@sem+1)^0,c
   390  001172  0E00               	movlw	0
   391  001174  6E25               	movwf	(sem_init@value+1)^0,c
   392  001176  0E00               	movlw	0
   393  001178  6E24               	movwf	sem_init@value^0,c
   394  00117A  EC19  F008         	call	_sem_init	;wreg free
   395  00117E  0012               	return		;funcret
   396  001180                     __end_of_user_config:
   397                           	callstack 0
   398                           
   399 ;; *************** function _sem_init *****************
   400 ;; Defined at:
   401 ;;		line 7 in file "sync.c"
   402 ;; Parameters:    Size  Location     Type
   403 ;;  sem             2   33[COMRAM] PTR struct sem
   404 ;;		 -> s(14), 
   405 ;;  value           2   35[COMRAM] unsigned int 
   406 ;; Auto vars:     Size  Location     Type
   407 ;;		None
   408 ;; Return value:  Size  Location     Type
   409 ;;                  1    wreg      void 
   410 ;; Registers used:
   411 ;;		wreg, fsr2l, fsr2h, status,2, status,0
   412 ;; Tracked objects:
   413 ;;		On entry : 0/0
   414 ;;		On exit  : 0/0
   415 ;;		Unchanged: 0/0
   416 ;; Data sizes:     COMRAM   BANK0   BANK1   BANK2   BANK3   BANK4   BANK5
   417 ;;      Params:         4       0       0       0       0       0       0
   418 ;;      Locals:         0       0       0       0       0       0       0
   419 ;;      Temps:          0       0       0       0       0       0       0
   420 ;;      Totals:         4       0       0       0       0       0       0
   421 ;;Total ram usage:        4 bytes
   422 ;; Hardware stack levels used:    1
   423 ;; Hardware stack levels required when called:    9
   424 ;; This function calls:
   425 ;;		Nothing
   426 ;; This function is called by:
   427 ;;		_user_config
   428 ;; This function uses a non-reentrant model
   429 ;;
   430                           
   431                           	psect	text2
   432  001032                     __ptext2:
   433                           	callstack 0
   434  001032                     _sem_init:
   435                           	callstack 20
   436  001032                     
   437                           ;sync.c: 7: void sem_init(sem_t *sem, u_int value);sync.c: 8: {;sync.c: 9:    (INTCONbit
      +                          s.GIE = 0);
   438  001032  9EF2               	bcf	242,7,c	;volatile
   439  001034                     
   440                           ;sync.c: 10:    sem->s_value = value;
   441  001034  C022  FFD9         	movff	sem_init@sem,fsr2l
   442  001038  C023  FFDA         	movff	sem_init@sem+1,fsr2h
   443  00103C  C024  FFDE         	movff	sem_init@value,postinc2
   444  001040  C025  FFDD         	movff	sem_init@value+1,postdec2
   445  001044                     
   446                           ;sync.c: 11:    sem->s_queue.pos_in = 0;
   447  001044  EE20 F00A          	lfsr	2,10
   448  001048  5022               	movf	sem_init@sem^0,w,c
   449  00104A  26D9               	addwf	fsr2l,f,c
   450  00104C  5023               	movf	(sem_init@sem+1)^0,w,c
   451  00104E  22DA               	addwfc	fsr2h,f,c
   452  001050  0E00               	movlw	0
   453  001052  6EDE               	movwf	postinc2,c
   454  001054  0E00               	movlw	0
   455  001056  6EDD               	movwf	postdec2,c
   456  001058                     
   457                           ;sync.c: 12:    sem->s_queue.pos_out = 0;
   458  001058  EE20 F00C          	lfsr	2,12
   459  00105C  5022               	movf	sem_init@sem^0,w,c
   460  00105E  26D9               	addwf	fsr2l,f,c
   461  001060  5023               	movf	(sem_init@sem+1)^0,w,c
   462  001062  22DA               	addwfc	fsr2h,f,c
   463  001064  0E00               	movlw	0
   464  001066  6EDE               	movwf	postinc2,c
   465  001068  0E00               	movlw	0
   466  00106A  6EDD               	movwf	postdec2,c
   467  00106C                     
   468                           ;sync.c: 13:    (INTCONbits.GIE = 1);
   469  00106C  8EF2               	bsf	242,7,c	;volatile
   470  00106E  0012               	return		;funcret
   471  001070                     __end_of_sem_init:
   472                           	callstack 0
   473                           
   474 ;; *************** function _os_init *****************
   475 ;; Defined at:
   476 ;;		line 8 in file "kernel.c"
   477 ;; Parameters:    Size  Location     Type
   478 ;;		None
   479 ;; Auto vars:     Size  Location     Type
   480 ;;		None
   481 ;; Return value:  Size  Location     Type
   482 ;;                  1    wreg      void 
   483 ;; Registers used:
   484 ;;		None
   485 ;; Tracked objects:
   486 ;;		On entry : 0/0
   487 ;;		On exit  : 0/0
   488 ;;		Unchanged: 0/0
   489 ;; Data sizes:     COMRAM   BANK0   BANK1   BANK2   BANK3   BANK4   BANK5
   490 ;;      Params:         0       0       0       0       0       0       0
   491 ;;      Locals:         0       0       0       0       0       0       0
   492 ;;      Temps:          0       0       0       0       0       0       0
   493 ;;      Totals:         0       0       0       0       0       0       0
   494 ;;Total ram usage:        0 bytes
   495 ;; Hardware stack levels used:    1
   496 ;; Hardware stack levels required when called:    9
   497 ;; This function calls:
   498 ;;		Nothing
   499 ;; This function is called by:
   500 ;;		_main
   501 ;; This function uses a non-reentrant model
   502 ;;
   503                           
   504                           	psect	text3
   505  0010F4                     __ptext3:
   506                           	callstack 0
   507  0010F4                     _os_init:
   508                           	callstack 21
   509  0010F4                     
   510                           ;kernel.c: 10:    READY_queue.ready_queue_size = 0;;kernel.c: 10:    T0CONbits.T08BIT = 
      +                          1;
   511  0010F4  0E00               	movlw	0
   512  0010F6  CFE8 F21F          	movff	wreg,_READY_queue+332
   513  0010FA  0E00               	movlw	0
   514  0010FC  CFE8 F220          	movff	wreg,_READY_queue+333
   515                           
   516                           ;kernel.c: 11:    READY_queue.pos_task_running = 0;;kernel.c: 11:    T0CONbits.PSA = 0;
   517  001100  0E00               	movlw	0
   518  001102  CFE8 F221          	movff	wreg,_READY_queue+334
   519  001106  0E00               	movlw	0
   520  001108  CFE8 F222          	movff	wreg,_READY_queue+335
   521                           
   522                           ;kernel.c: 12:    READY_queue.real_quantum = 8;;kernel.c: 12:    T0CONbits.T0PS = 0b101;
   523  00110C  0E08               	movlw	8
   524  00110E  CFE8 F223          	movff	wreg,_READY_queue+336
   525  001112  0E00               	movlw	0
   526  001114  CFE8 F224          	movff	wreg,_READY_queue+337
   527  001118  0012               	return		;funcret
   528  00111A                     __end_of_os_init:
   529                           	callstack 0
   530                           
   531 ;; *************** function _new_task *****************
   532 ;; Defined at:
   533 ;;		line 43 in file "kernel.c"
   534 ;; Parameters:    Size  Location     Type
   535 ;;  id              2   33[COMRAM] unsigned int 
   536 ;;  prioridade      2   35[COMRAM] unsigned int 
   537 ;;  f               2   37[COMRAM] PTR FTN()void 
   538 ;;		 -> aciona_led_3(1), aciona_led_2(1), aciona_led_1(1), 
   539 ;; Auto vars:     Size  Location     Type
   540 ;;  new_task       83    0[BANK0 ] struct tcb
   541 ;; Return value:  Size  Location     Type
   542 ;;                  1    wreg      void 
   543 ;; Registers used:
   544 ;;		wreg, fsr0l, fsr0h, fsr1l, fsr1h, fsr2l, fsr2h, status,2, status,0, btemp, btemp+1, btemp+11, prodl, prodh
   545 ;; Tracked objects:
   546 ;;		On entry : 0/0
   547 ;;		On exit  : 0/0
   548 ;;		Unchanged: 0/0
   549 ;; Data sizes:     COMRAM   BANK0   BANK1   BANK2   BANK3   BANK4   BANK5
   550 ;;      Params:         6       0       0       0       0       0       0
   551 ;;      Locals:         0      83       0       0       0       0       0
   552 ;;      Temps:          2       0       0       0       0       0       0
   553 ;;      Totals:         8      83       0       0       0       0       0
   554 ;;Total ram usage:       91 bytes
   555 ;; Hardware stack levels used:    1
   556 ;; Hardware stack levels required when called:   10
   557 ;; This function calls:
   558 ;;		___wmul
   559 ;; This function is called by:
   560 ;;		_main
   561 ;; This function uses a non-reentrant model
   562 ;;
   563                           
   564                           	psect	text4
   565  000F52                     __ptext4:
   566                           	callstack 0
   567  000F52                     _new_task:
   568                           	callstack 20
   569  000F52                     
   570                           ;kernel.c: 43:    (INTCONbits.GIE = 0);;kernel.c: 44:    READY_queue.tasks[pos_ready_que
      +                          ue].task_state = new_state;;kernel.c: 45:    (INTCONbits.GIE = 1);;kernel.c: 48: void ta
      +                          sk_delay(u_int time)
   571  000F52  C022  F080         	movff	new_task@id,new_task@new_task
   572  000F56  C023  F081         	movff	new_task@id+1,new_task@new_task+1
   573                           
   574                           ;kernel.c: 49: {
   575  000F5A  C024  F082         	movff	new_task@prioridade,new_task@new_task+2
   576  000F5E  C025  F083         	movff	new_task@prioridade+1,new_task@new_task+3
   577  000F62                     
   578                           ;kernel.c: 50:    (INTCONbits.GIE = 0);
   579  000F62  0E00               	movlw	0
   580  000F64  0100               	movlb	0	; () banked
   581  000F66  6F84               	movwf	(new_task@new_task+4)& (0+255),b
   582  000F68                     
   583                           ; BSR set to: 0
   584                           ;kernel.c: 51:    READY_queue.tasks[READY_queue.pos_task_running].time_sleeping = time;
   585  000F68  C026  F085         	movff	new_task@f,new_task@new_task+5
   586  000F6C  C027  F086         	movff	new_task@f+1,new_task@new_task+6
   587  000F70                     
   588                           ; BSR set to: 0
   589                           ;kernel.c: 52:    { do { u_int pos_task = READY_queue.pos_task_running; u_int task_stack
      +                          _size = 0; if (READY_queue.tasks[pos_task].task_state == RUNNING) { READY_queue.tasks[po
      +                          s_task].task_state = SLEEPING; READY_queue.tasks[pos_task].BSR_reg = BSR; READY_queue.ta
      +                          sks[pos_task].STATUS_reg = STATUS; READY_queue.tasks[pos_task].W_reg = WREG; do { READY_
      +                          queue.tasks[pos_task].task_stack.stack[task_stack_size] = TOS; task_stack_size += 1; __a
      +                          sm("POP"); } while (STKPTR); READY_queue.tasks[pos_task].task_stack.stack_size = task_st
      +                          ack_size; } } while (0); };
   590  000F70  0E00               	movlw	0
   591  000F72  6FC7               	movwf	(new_task@new_task+71)& (0+255),b
   592  000F74  0E00               	movlw	0
   593  000F76  6FC6               	movwf	(new_task@new_task+70)& (0+255),b
   594  000F78                     
   595                           ; BSR set to: 0
   596                           ;kernel.c: 53:    scheduler();
   597  000F78  0E00               	movlw	0
   598  000F7A  6FD2               	movwf	(new_task@new_task+82)& (0+255),b
   599  000F7C  0E00               	movlw	0
   600  000F7E  6FD1               	movwf	(new_task@new_task+81)& (0+255),b
   601  000F80                     
   602                           ; BSR set to: 0
   603                           ;kernel.c: 56:    (INTCONbits.GIE = 1);
   604  000F80  0E53               	movlw	83
   605  000F82  6EE6               	movwf	postinc1,c
   606  000F84  0E00               	movlw	0
   607  000F86  6EE6               	movwf	postinc1,c
   608  000F88  EE22  F01F         	lfsr	2,_READY_queue+332
   609  000F8C  CFDE F028          	movff	postinc2,??_new_task
   610  000F90  CFDD F029          	movff	postdec2,??_new_task+1
   611  000F94  C028  FFE6         	movff	??_new_task,postinc1
   612  000F98  C029  FFE6         	movff	??_new_task+1,postinc1
   613  000F9C  EC5E  F007         	call	___wmul	;wreg free
   614  000FA0  0ED3               	movlw	low _READY_queue
   615  000FA2  242A               	addwf	btemp^0,w,c
   616  000FA4  6EE9               	movwf	fsr0l,c
   617  000FA6  0E00               	movlw	high _READY_queue
   618  000FA8  202B               	addwfc	(btemp+1)^0,w,c
   619  000FAA  6EEA               	movwf	fsr0h,c
   620  000FAC  EE20  F080         	lfsr	2,new_task@new_task
   621  000FB0  0E52               	movlw	82
   622  000FB2                     u501:
   623  000FB2  CFDB FFEB          	movff	plusw2,plusw0
   624  000FB6  06E8               	decf	wreg,f,c
   625  000FB8  E2FC               	bc	u501
   626  000FBA                     
   627                           ;kernel.c: 57: }
   628  000FBA  EE22  F01F         	lfsr	2,_READY_queue+332
   629  000FBE  2ADE               	incf	postinc2,f,c
   630  000FC0  0E00               	movlw	0
   631  000FC2  22DD               	addwfc	postdec2,f,c
   632  000FC4  0012               	return		;funcret
   633  000FC6                     __end_of_new_task:
   634                           	callstack 0
   635                           
   636 ;; *************** function ___wmul *****************
   637 ;; Defined at:
   638 ;;		line 15 in file "C:\Program Files\Microchip\xc8\v2.20\pic\sources\c99\common\Umul16.c"
   639 ;; Parameters:    Size  Location     Type
   640 ;;  multiplier      2  [STACK] unsigned int 
   641 ;;  multiplicand    2  [STACK] unsigned int 
   642 ;; Auto vars:     Size  Location     Type
   643 ;;  product         2  [STACK] unsigned int 
   644 ;; Return value:  Size  Location     Type
   645 ;;                  2  [STACK] unsigned int 
   646 ;; Registers used:
   647 ;;		wreg, fsr1l, fsr1h, fsr2l, fsr2h, status,2, status,0, btemp, btemp+1, btemp+11, prodl, prodh
   648 ;; Tracked objects:
   649 ;;		On entry : 0/0
   650 ;;		On exit  : 0/0
   651 ;;		Unchanged: 0/0
   652 ;; Data sizes:     COMRAM   BANK0   BANK1   BANK2   BANK3   BANK4   BANK5
   653 ;;      Params:         0       0       0       0       0       0       0
   654 ;;      Locals:         0       0       0       0       0       0       0
   655 ;;      Temps:          0       0       0       0       0       0       0
   656 ;;      Totals:         0       0       0       0       0       0       0
   657 ;;Total ram usage:        0 bytes
   658 ;; Hardware stack levels used:    1
   659 ;; Hardware stack levels required when called:    9
   660 ;; This function calls:
   661 ;;		Nothing
   662 ;; This function is called by:
   663 ;;		_new_task
   664 ;;		_isr_INT0
   665 ;;		_change_task_state
   666 ;;		_task_exit
   667 ;;		_sem_wait
   668 ;;		_sem_post
   669 ;;		_mutex_lock
   670 ;;		_mutex_unlock
   671 ;; This function uses a reentrant model
   672 ;;
   673                           
   674                           	psect	text5
   675  000EBC                     __ptext5:
   676                           	callstack 0
   677  000EBC                     ___wmul:
   678                           	callstack 0
   679                           
   680                           ; autosize = 2, savesize = 0, parsavesize = 0, tempsize = 0 parsize = 4, argsize = 4 var
      +                          gsize = 0, retsize = 0 argfudge = 0
   681  000EBC  52E6               	movf	postinc1,f,c
   682  000EBE  52E6               	movf	postinc1,f,c
   683  000EC0                     
   684                           ;stkvar	___wmul@multiplicand @ sp[(-2)+-4]
   685  000EC0  0EFA               	movlw	-6
   686  000EC2  CFE3 F035          	movff	plusw1,btemp+11
   687                           
   688                           ;stkvar	___wmul@multiplier @ sp[(-2)+-2]
   689  000EC6  0EFC               	movlw	-4
   690  000EC8  50E3               	movf	plusw1,w,c
   691  000ECA  0235               	mulwf	(btemp+11)^0,c
   692                           
   693                           ;stkvar	___wmul@product @ sp[(-2)+0]
   694  000ECC  0EFE               	movlw	-2
   695  000ECE  CFF3 FFE3          	movff	prodl,plusw1
   696  000ED2  0EFF               	movlw	-1
   697  000ED4  CFF4 FFE3          	movff	prodh,plusw1
   698  000ED8                     
   699                           ;stkvar	___wmul@multiplicand @ sp[(-2)+-4]
   700  000ED8  0EFB               	movlw	251
   701  000EDA  24E1               	addwf	fsr1l,w,c
   702  000EDC  6ED9               	movwf	fsr2l,c
   703  000EDE  0EFF               	movlw	255
   704  000EE0  20E2               	addwfc	fsr1h,w,c
   705  000EE2  6EDA               	movwf	fsr2h,c
   706  000EE4  50DF               	movf	indf2,w,c
   707  000EE6  6E35               	movwf	(btemp+11)^0,c
   708                           
   709                           ;stkvar	___wmul@multiplier @ sp[(-2)+-2]
   710  000EE8  0EFC               	movlw	-4
   711  000EEA  50E3               	movf	plusw1,w,c
   712  000EEC  0235               	mulwf	(btemp+11)^0,c
   713  000EEE  CFF3 FFF4          	movff	prodl,prodh
   714  000EF2  6AF3               	clrf	243,c
   715                           
   716                           ;stkvar	___wmul@product @ sp[(-2)+0]
   717  000EF4  50E1               	movf	fsr1l,w,c
   718  000EF6  0FFE               	addlw	-2
   719  000EF8  6ED9               	movwf	fsr2l,c
   720  000EFA  50E2               	movf	fsr1h,w,c
   721  000EFC  6EDA               	movwf	fsr2h,c
   722  000EFE  0EFF               	movlw	255
   723  000F00  22DA               	addwfc	fsr2h,f,c
   724  000F02  50F3               	movf	243,w,c
   725  000F04  26DE               	addwf	postinc2,f,c
   726  000F06  50F4               	movf	244,w,c
   727  000F08  22DD               	addwfc	postdec2,f,c
   728  000F0A                     
   729                           ;stkvar	___wmul@multiplicand @ sp[(-2)+-4]
   730  000F0A  0EFA               	movlw	-6
   731  000F0C  CFE3 F035          	movff	plusw1,btemp+11
   732                           
   733                           ;stkvar	___wmul@multiplier @ sp[(-2)+-2]
   734  000F10  0EFD               	movlw	253
   735  000F12  24E1               	addwf	fsr1l,w,c
   736  000F14  6ED9               	movwf	fsr2l,c
   737  000F16  0EFF               	movlw	255
   738  000F18  20E2               	addwfc	fsr1h,w,c
   739  000F1A  6EDA               	movwf	fsr2h,c
   740  000F1C  50DF               	movf	indf2,w,c
   741  000F1E  0235               	mulwf	(btemp+11)^0,c
   742  000F20  CFF3 FFF4          	movff	prodl,prodh
   743  000F24  6AF3               	clrf	243,c
   744                           
   745                           ;stkvar	___wmul@product @ sp[(-2)+0]
   746  000F26  50E1               	movf	fsr1l,w,c
   747  000F28  0FFE               	addlw	-2
   748  000F2A  6ED9               	movwf	fsr2l,c
   749  000F2C  50E2               	movf	fsr1h,w,c
   750  000F2E  6EDA               	movwf	fsr2h,c
   751  000F30  0EFF               	movlw	255
   752  000F32  22DA               	addwfc	fsr2h,f,c
   753  000F34  50F3               	movf	243,w,c
   754  000F36  26DE               	addwf	postinc2,f,c
   755  000F38  50F4               	movf	244,w,c
   756  000F3A  22DD               	addwfc	postdec2,f,c
   757  000F3C                     
   758                           ;stkvar	___wmul@product @ sp[(-2)+0]
   759  000F3C  0EFE               	movlw	-2
   760  000F3E  CFE3 F02A          	movff	plusw1,btemp
   761  000F42  0EFF               	movlw	-1
   762  000F44  CFE3 F02B          	movff	plusw1,btemp+1
   763  000F48                     
   764                           ; ___wmul: autosize = 2, savesize = 0, parsavesize = 0, tempsize = 0 parsize = 4, argsiz
      +                          e = 4, vargsize = 0
   765  000F48  0EFA               	movlw	250
   766  000F4A  26E1               	addwf	fsr1l,f,c
   767  000F4C  0EFF               	movlw	255
   768  000F4E  22E2               	addwfc	fsr1h,f,c
   769  000F50  0012               	return		;funcret
   770  000F52                     __end_of___wmul:
   771                           	callstack 0
   772                           
   773 ;; *************** function _kernel_start *****************
   774 ;; Defined at:
   775 ;;		line 35 in file "kernel.c"
   776 ;; Parameters:    Size  Location     Type
   777 ;;		None
   778 ;; Auto vars:     Size  Location     Type
   779 ;;		None
   780 ;; Return value:  Size  Location     Type
   781 ;;                  1    wreg      void 
   782 ;; Registers used:
   783 ;;		None
   784 ;; Tracked objects:
   785 ;;		On entry : 0/0
   786 ;;		On exit  : 0/0
   787 ;;		Unchanged: 0/0
   788 ;; Data sizes:     COMRAM   BANK0   BANK1   BANK2   BANK3   BANK4   BANK5
   789 ;;      Params:         0       0       0       0       0       0       0
   790 ;;      Locals:         0       0       0       0       0       0       0
   791 ;;      Temps:          0       0       0       0       0       0       0
   792 ;;      Totals:         0       0       0       0       0       0       0
   793 ;;Total ram usage:        0 bytes
   794 ;; Hardware stack levels used:    1
   795 ;; Hardware stack levels required when called:    9
   796 ;; This function calls:
   797 ;;		Nothing
   798 ;; This function is called by:
   799 ;;		_main
   800 ;; This function uses a non-reentrant model
   801 ;;
   802                           
   803                           	psect	text6
   804  00118E                     __ptext6:
   805                           	callstack 0
   806  00118E                     _kernel_start:
   807                           	callstack 21
   808  00118E                     
   809                           ;kernel.c: 38:    READY_queue.ready_queue_size += 1;
   810  00118E  8EF2               	bsf	242,7,c	;volatile
   811                           
   812                           ;kernel.c: 40: 
   813  001190  8ED5               	bsf	213,7,c	;volatile
   814  001192  0012               	return		;funcret
   815  001194                     __end_of_kernel_start:
   816                           	callstack 0
   817                           
   818 ;; *************** function _hardware_init *****************
   819 ;; Defined at:
   820 ;;		line 15 in file "kernel.c"
   821 ;; Parameters:    Size  Location     Type
   822 ;;		None
   823 ;; Auto vars:     Size  Location     Type
   824 ;;		None
   825 ;; Return value:  Size  Location     Type
   826 ;;                  1    wreg      void 
   827 ;; Registers used:
   828 ;;		wreg, status,2
   829 ;; Tracked objects:
   830 ;;		On entry : 0/0
   831 ;;		On exit  : 0/0
   832 ;;		Unchanged: 0/0
   833 ;; Data sizes:     COMRAM   BANK0   BANK1   BANK2   BANK3   BANK4   BANK5
   834 ;;      Params:         0       0       0       0       0       0       0
   835 ;;      Locals:         0       0       0       0       0       0       0
   836 ;;      Temps:          0       0       0       0       0       0       0
   837 ;;      Totals:         0       0       0       0       0       0       0
   838 ;;Total ram usage:        0 bytes
   839 ;; Hardware stack levels used:    1
   840 ;; Hardware stack levels required when called:    9
   841 ;; This function calls:
   842 ;;		Nothing
   843 ;; This function is called by:
   844 ;;		_main
   845 ;; This function uses a non-reentrant model
   846 ;;
   847                           
   848                           	psect	text7
   849  001140                     __ptext7:
   850                           	callstack 0
   851  001140                     _hardware_init:
   852                           	callstack 21
   853  001140                     
   854                           ;kernel.c: 19:    (INTCONbits.GIE = 1);
   855  001140  88F2               	bsf	242,4,c	;volatile
   856                           
   857                           ;kernel.c: 20: 
   858  001142  92F2               	bcf	242,1,c	;volatile
   859                           
   860                           ;kernel.c: 21:    T0CONbits.TMR0ON = 1;
   861  001144  9EF1               	bcf	241,7,c	;volatile
   862                           
   863                           ;kernel.c: 22: }
   864  001146  9CF1               	bcf	241,6,c	;volatile
   865                           
   866                           ;kernel.c: 26:    tcb_t new_task;
   867  001148  8AF2               	bsf	242,5,c	;volatile
   868                           
   869                           ;kernel.c: 27: 
   870  00114A  94F2               	bcf	242,2,c	;volatile
   871                           
   872                           ;kernel.c: 28: 
   873  00114C  9AD5               	bcf	213,5,c	;volatile
   874                           
   875                           ;kernel.c: 29:    new_task.task_id = id;
   876  00114E  8CD5               	bsf	213,6,c	;volatile
   877                           
   878                           ;kernel.c: 30:    new_task.task_prior = prioridade;
   879  001150  96D5               	bcf	213,3,c	;volatile
   880  001152                     
   881                           ;kernel.c: 31:    new_task.task_state = READY;
   882  001152  50D5               	movf	213,w,c	;volatile
   883  001154  0BF8               	andlw	-8
   884  001156  0905               	iorlw	5
   885  001158  6ED5               	movwf	213,c	;volatile
   886                           
   887                           ;kernel.c: 32:    new_task.task_f = f;
   888  00115A  0E00               	movlw	0
   889  00115C  6ED7               	movwf	215,c	;volatile
   890  00115E  0E40               	movlw	64
   891  001160  6ED6               	movwf	214,c	;volatile
   892  001162  0012               	return		;funcret
   893  001164                     __end_of_hardware_init:
   894                           	callstack 0
   895                           
   896 ;; *************** function _aciona_led_1 *****************
   897 ;; Defined at:
   898 ;;		line 17 in file "user_tasks.c"
   899 ;; Parameters:    Size  Location     Type
   900 ;;		None
   901 ;; Auto vars:     Size  Location     Type
   902 ;;		None
   903 ;; Return value:  Size  Location     Type
   904 ;;                  1  [STACK] void 
   905 ;; Registers used:
   906 ;;		wreg, status,2, status,0, btemp+11
   907 ;; Tracked objects:
   908 ;;		On entry : 0/0
   909 ;;		On exit  : 0/0
   910 ;;		Unchanged: 0/0
   911 ;; Data sizes:     COMRAM   BANK0   BANK1   BANK2   BANK3   BANK4   BANK5
   912 ;;      Params:         0       0       0       0       0       0       0
   913 ;;      Locals:         0       0       0       0       0       0       0
   914 ;;      Temps:          0       0       0       0       0       0       0
   915 ;;      Totals:         0       0       0       0       0       0       0
   916 ;;Total ram usage:        0 bytes
   917 ;; Hardware stack levels used:    1
   918 ;; Hardware stack levels required when called:    4
   919 ;; This function calls:
   920 ;;		Nothing
   921 ;; This function is called by:
   922 ;;		_main
   923 ;; This function uses a reentrant model
   924 ;;
   925                           
   926                           	psect	text8
   927  00111A                     __ptext8:
   928                           	callstack 0
   929  00111A                     _aciona_led_1:
   930                           	callstack 24
   931  00111A                     l155:
   932  00111A                     
   933                           ;user_tasks.c: 20:       LATDbits.LATD0 = ~PORTDbits.RD0;
   934  00111A  B083               	btfsc	131,0,c	;volatile
   935  00111C  EF92  F008         	goto	u27_21
   936  001120  EF95  F008         	goto	u27_20
   937  001124                     u27_21:
   938  001124  0E01               	movlw	1
   939  001126  EF96  F008         	goto	u27_26
   940  00112A                     u27_20:
   941  00112A  0E00               	movlw	0
   942  00112C                     u27_26:
   943  00112C  0AFF               	xorlw	255
   944  00112E  6E35               	movwf	(btemp+11)^0,c
   945  001130  508C               	movf	140,w,c	;volatile
   946  001132  1835               	xorwf	(btemp+11)^0,w,c
   947  001134  0BFE               	andlw	-2
   948  001136  1835               	xorwf	(btemp+11)^0,w,c
   949  001138  6E8C               	movwf	140,c	;volatile
   950  00113A  EF8D  F008         	goto	l155
   951                           
   952                           ; _aciona_led_1: autosize = 0, savesize = 0, parsavesize = 0, tempsize = 0 parsize = 0, 
      +                          argsize = 0, vargsize = 0
   953  00113E  0012               	return		;funcret
   954  001140                     __end_of_aciona_led_1:
   955                           	callstack 0
   956                           
   957 ;; *************** function _aciona_led_2 *****************
   958 ;; Defined at:
   959 ;;		line 24 in file "user_tasks.c"
   960 ;; Parameters:    Size  Location     Type
   961 ;;		None
   962 ;; Auto vars:     Size  Location     Type
   963 ;;		None
   964 ;; Return value:  Size  Location     Type
   965 ;;                  1  [STACK] void 
   966 ;; Registers used:
   967 ;;		wreg, status,2, status,0, btemp+11
   968 ;; Tracked objects:
   969 ;;		On entry : 0/0
   970 ;;		On exit  : 0/0
   971 ;;		Unchanged: 0/0
   972 ;; Data sizes:     COMRAM   BANK0   BANK1   BANK2   BANK3   BANK4   BANK5
   973 ;;      Params:         0       0       0       0       0       0       0
   974 ;;      Locals:         0       0       0       0       0       0       0
   975 ;;      Temps:          0       0       0       0       0       0       0
   976 ;;      Totals:         0       0       0       0       0       0       0
   977 ;;Total ram usage:        0 bytes
   978 ;; Hardware stack levels used:    1
   979 ;; Hardware stack levels required when called:    4
   980 ;; This function calls:
   981 ;;		Nothing
   982 ;; This function is called by:
   983 ;;		_main
   984 ;; This function uses a reentrant model
   985 ;;
   986                           
   987                           	psect	text9
   988  0010A6                     __ptext9:
   989                           	callstack 0
   990  0010A6                     _aciona_led_2:
   991                           	callstack 24
   992  0010A6                     l161:
   993  0010A6                     
   994                           ;user_tasks.c: 29:       LATDbits.LATD1 = ~PORTDbits.RD1;
   995  0010A6  B283               	btfsc	131,1,c	;volatile
   996  0010A8  EF58  F008         	goto	u28_21
   997  0010AC  EF5B  F008         	goto	u28_20
   998  0010B0                     u28_21:
   999  0010B0  0E01               	movlw	1
  1000  0010B2  EF5C  F008         	goto	u28_26
  1001  0010B6                     u28_20:
  1002  0010B6  0E00               	movlw	0
  1003  0010B8                     u28_26:
  1004  0010B8  0AFF               	xorlw	255
  1005  0010BA  6E35               	movwf	(btemp+11)^0,c
  1006  0010BC  4635               	rlncf	(btemp+11)^0,f,c
  1007  0010BE  508C               	movf	140,w,c	;volatile
  1008  0010C0  1835               	xorwf	(btemp+11)^0,w,c
  1009  0010C2  0BFD               	andlw	-3
  1010  0010C4  1835               	xorwf	(btemp+11)^0,w,c
  1011  0010C6  6E8C               	movwf	140,c	;volatile
  1012  0010C8  EF53  F008         	goto	l161
  1013                           
  1014                           ; _aciona_led_2: autosize = 0, savesize = 0, parsavesize = 0, tempsize = 0 parsize = 0, 
      +                          argsize = 0, vargsize = 0
  1015  0010CC  0012               	return		;funcret
  1016  0010CE                     __end_of_aciona_led_2:
  1017                           	callstack 0
  1018                           
  1019 ;; *************** function _aciona_led_3 *****************
  1020 ;; Defined at:
  1021 ;;		line 33 in file "user_tasks.c"
  1022 ;; Parameters:    Size  Location     Type
  1023 ;;		None
  1024 ;; Auto vars:     Size  Location     Type
  1025 ;;		None
  1026 ;; Return value:  Size  Location     Type
  1027 ;;                  1  [STACK] void 
  1028 ;; Registers used:
  1029 ;;		wreg, fsr0l, fsr0h, fsr1l, fsr1h, fsr2l, fsr2h, status,2, status,0, pclath, btemp, btemp+1, btemp+2, btemp+3, btemp+
      +4, btemp+5, btemp+6, btemp+7, btemp+8, btemp+9, btemp+10, btemp+11, btemp+12, btemp+13, btemp+14, btemp+15, btemp+16, bt
      +emp+17, btemp+18, btemp+19, btemp+20, btemp+21, btemp+22, btemp+23, btemp+24, btemp+25, btemp+26, btemp+27, btemp+28, bt
      +emp+29, btemp+30, btemp+31, tosl, structret, tblptrl, tblptrh, tblptru, prodl, prodh, bsr, cstack
  1030 ;; Tracked objects:
  1031 ;;		On entry : 0/0
  1032 ;;		On exit  : 0/0
  1033 ;;		Unchanged: 0/0
  1034 ;; Data sizes:     COMRAM   BANK0   BANK1   BANK2   BANK3   BANK4   BANK5
  1035 ;;      Params:         0       0       0       0       0       0       0
  1036 ;;      Locals:         0       0       0       0       0       0       0
  1037 ;;      Temps:          0       0       0       0       0       0       0
  1038 ;;      Totals:         0       0       0       0       0       0       0
  1039 ;;Total ram usage:        0 bytes
  1040 ;; Hardware stack levels used:    1
  1041 ;; Hardware stack levels required when called:    8
  1042 ;; This function calls:
  1043 ;;		_task_delay
  1044 ;; This function is called by:
  1045 ;;		_main
  1046 ;; This function uses a reentrant model
  1047 ;;
  1048                           
  1049                           	psect	text10
  1050  001070                     __ptext10:
  1051                           	callstack 0
  1052  001070                     _aciona_led_3:
  1053                           	callstack 20
  1054  001070                     l167:
  1055  001070                     
  1056                           ;user_tasks.c: 36:       LATDbits.LATD2 = ~PORTDbits.RD2;
  1057  001070  B483               	btfsc	131,2,c	;volatile
  1058  001072  EF3D  F008         	goto	u29_21
  1059  001076  EF40  F008         	goto	u29_20
  1060  00107A                     u29_21:
  1061  00107A  0E01               	movlw	1
  1062  00107C  EF41  F008         	goto	u29_26
  1063  001080                     u29_20:
  1064  001080  0E00               	movlw	0
  1065  001082                     u29_26:
  1066  001082  0AFF               	xorlw	255
  1067  001084  6E35               	movwf	(btemp+11)^0,c
  1068  001086  4635               	rlncf	(btemp+11)^0,f,c
  1069  001088  4635               	rlncf	(btemp+11)^0,f,c
  1070  00108A  508C               	movf	140,w,c	;volatile
  1071  00108C  1835               	xorwf	(btemp+11)^0,w,c
  1072  00108E  0BFB               	andlw	-5
  1073  001090  1835               	xorwf	(btemp+11)^0,w,c
  1074  001092  6E8C               	movwf	140,c	;volatile
  1075  001094                     
  1076                           ;user_tasks.c: 37:       task_delay(50);
  1077  001094  0E32               	movlw	50
  1078  001096  6EE6               	movwf	postinc1,c
  1079  001098  0E00               	movlw	0
  1080  00109A  6EE6               	movwf	postinc1,c
  1081  00109C  EC38  F004         	call	_task_delay	;wreg free
  1082  0010A0  EF38  F008         	goto	l167
  1083                           
  1084                           ; _aciona_led_3: autosize = 0, savesize = 0, parsavesize = 0, tempsize = 0 parsize = 0, 
      +                          argsize = 0, vargsize = 0
  1085  0010A4  0012               	return		;funcret
  1086  0010A6                     __end_of_aciona_led_3:
  1087                           	callstack 0
  1088                           
  1089 ;; *************** function _task_delay *****************
  1090 ;; Defined at:
  1091 ;;		line 67 in file "kernel.c"
  1092 ;; Parameters:    Size  Location     Type
  1093 ;;  time            2  [STACK] unsigned int 
  1094 ;; Auto vars:     Size  Location     Type
  1095 ;;  task_stack_s    2  [STACK] unsigned int 
  1096 ;;  pos_task        2  [STACK] unsigned int 
  1097 ;;  pos_task        2  [STACK] unsigned int 
  1098 ;;  task_stack_s    2  [STACK] unsigned int 
  1099 ;; Return value:  Size  Location     Type
  1100 ;;                  1  [STACK] void 
  1101 ;; Registers used:
  1102 ;;		wreg, fsr0l, fsr0h, fsr1l, fsr1h, fsr2l, fsr2h, status,2, status,0, pclath, btemp, btemp+1, btemp+2, btemp+3, btemp+
      +4, btemp+5, btemp+6, btemp+7, btemp+8, btemp+9, btemp+10, btemp+11, btemp+12, btemp+13, btemp+14, btemp+15, btemp+16, bt
      +emp+17, btemp+18, btemp+19, btemp+20, btemp+21, btemp+22, btemp+23, btemp+24, btemp+25, btemp+26, btemp+27, btemp+28, bt
      +emp+29, btemp+30, btemp+31, tosl, structret, tblptrl, tblptrh, tblptru, prodl, prodh, bsr, cstack
  1103 ;; Tracked objects:
  1104 ;;		On entry : 0/0
  1105 ;;		On exit  : 0/0
  1106 ;;		Unchanged: 0/0
  1107 ;; Data sizes:     COMRAM   BANK0   BANK1   BANK2   BANK3   BANK4   BANK5
  1108 ;;      Params:         0       0       0       0       0       0       0
  1109 ;;      Locals:         0       0       0       0       0       0       0
  1110 ;;      Temps:          0       0       0       0       0       0       0
  1111 ;;      Totals:         0       0       0       0       0       0       0
  1112 ;;Total ram usage:        0 bytes
  1113 ;; Hardware stack levels used:    1
  1114 ;; Hardware stack levels required when called:    7
  1115 ;; This function calls:
  1116 ;;		_scheduler
  1117 ;; This function is called by:
  1118 ;;		_aciona_led_3
  1119 ;; This function uses a reentrant model
  1120 ;;
  1121                           
  1122                           	psect	text11
  1123  000870                     __ptext11:
  1124                           	callstack 0
  1125  000870                     _task_delay:
  1126                           	callstack 0
  1127                           
  1128                           ; autosize = 8, savesize = 0, parsavesize = 0, tempsize = 0 parsize = 2, argsize = 2 var
      +                          gsize = 0, retsize = 0 argfudge = 0
  1129  000870  0E08               	movlw	8
  1130  000872  26E1               	addwf	fsr1l,f,c
  1131  000874  0E00               	movlw	0
  1132  000876  22E2               	addwfc	fsr1h,f,c
  1133  000878                     
  1134                           ;kernel.c: 67:    task_delete(READY_queue.pos_task_running);;kernel.c: 68:    scheduler(
      +                          );;kernel.c: 69:    { do { u_int pos_task = READY_queue.pos_task_running; READY_queue.ta
      +                          sks[pos_task].task_state = RUNNING; BSR = READY_queue.tasks[pos_task].BSR_reg; STATUS = 
      +                          READY_queue.tasks[pos_task].STATUS_reg; WREG = READY_queue.tasks[pos_task].W_reg; STKPTR
      +                           = 0; if (READY_queue.tasks[pos_task].task_stack.stack_size > 0) { u_int task_stack_size
      +                           = READY_queue.tasks[pos_task].task_stack.stack_size; do { __asm("PUSH"); task_stack_siz
      +                          e -= 1; TOS = READY_queue.tasks[pos_task].task_stack.stack[task_stack_size]; } while (ta
      +                          sk_stack_size); } else { __asm("PUSH"); TOS = READY_queue.tasks[pos_task].task_f; READY_
      +                          queue.tasks[pos_task].task_stack.stack_size = 1; } (INTCONbits.GIE = 1); } while (0); };
  1135  000878  9EF2               	bcf	242,7,c	;volatile
  1136  00087A                     
  1137                           ;kernel.c: 70:    (INTCONbits.GIE = 1);
  1138                           ;stkvar	task_delay@time @ sp[(-8)+-2]
  1139  00087A  50E1               	movf	fsr1l,w,c
  1140  00087C  0FF6               	addlw	-10
  1141  00087E  6ED9               	movwf	fsr2l,c
  1142  000880  50E2               	movf	fsr1h,w,c
  1143  000882  6EDA               	movwf	fsr2h,c
  1144  000884  0EFF               	movlw	255
  1145  000886  22DA               	addwfc	fsr2h,f,c
  1146  000888  EE02  F021         	lfsr	0,_READY_queue+334
  1147  00088C  CFEE F034          	movff	postinc0,btemp+10
  1148  000890  CFED F035          	movff	postdec0,btemp+11
  1149  000894  0E53               	movlw	83
  1150  000896  0234               	mulwf	(btemp+10)^0,c
  1151  000898  CFF3 F032          	movff	prodl,btemp+8
  1152  00089C  CFF4 F033          	movff	prodh,btemp+9
  1153  0008A0  0235               	mulwf	(btemp+11)^0,c
  1154  0008A2  50F3               	movf	prodl,w,c
  1155  0008A4  2633               	addwf	(btemp+9)^0,f,c
  1156  0008A6  0E24               	movlw	low (_READY_queue+81)
  1157  0008A8  2432               	addwf	(btemp+8)^0,w,c
  1158  0008AA  6EE9               	movwf	fsr0l,c
  1159  0008AC  0E01               	movlw	high (_READY_queue+81)
  1160  0008AE  2033               	addwfc	(btemp+9)^0,w,c
  1161  0008B0  6EEA               	movwf	fsr0h,c
  1162  0008B2  CFDE FFEE          	movff	postinc2,postinc0
  1163  0008B6  CFDD FFED          	movff	postdec2,postdec0
  1164  0008BA                     
  1165                           ;stkvar	task_delay@pos_task @ sp[(-8)+4]
  1166  0008BA  0EFC               	movlw	-4
  1167  0008BC  C221  FFE3         	movff	_READY_queue+334,plusw1
  1168  0008C0  0EFD               	movlw	-3
  1169  0008C2  C222  FFE3         	movff	_READY_queue+335,plusw1
  1170  0008C6                     
  1171                           ;stkvar	task_delay@task_stack_size @ sp[(-8)+6]
  1172  0008C6  0EFE               	movlw	-2
  1173  0008C8  6AE3               	clrf	plusw1,c
  1174  0008CA  0EFF               	movlw	-1
  1175  0008CC  6AE3               	clrf	plusw1,c
  1176  0008CE                     
  1177                           ;stkvar	task_delay@pos_task @ sp[(-8)+4]
  1178  0008CE  0EFC               	movlw	-4
  1179  0008D0  CFE3 F034          	movff	plusw1,btemp+10
  1180  0008D4  0EFD               	movlw	-3
  1181  0008D6  CFE3 F035          	movff	plusw1,btemp+11
  1182  0008DA  0E53               	movlw	83
  1183  0008DC  0234               	mulwf	(btemp+10)^0,c
  1184  0008DE  CFF3 F032          	movff	prodl,btemp+8
  1185  0008E2  CFF4 F033          	movff	prodh,btemp+9
  1186  0008E6  0235               	mulwf	(btemp+11)^0,c
  1187  0008E8  50F3               	movf	prodl,w,c
  1188  0008EA  2633               	addwf	(btemp+9)^0,f,c
  1189  0008EC  0ED7               	movlw	low (_READY_queue+4)
  1190  0008EE  2432               	addwf	(btemp+8)^0,w,c
  1191  0008F0  6ED9               	movwf	fsr2l,c
  1192  0008F2  0E00               	movlw	high (_READY_queue+4)
  1193  0008F4  2033               	addwfc	(btemp+9)^0,w,c
  1194  0008F6  6EDA               	movwf	fsr2h,c
  1195  0008F8  04DE               	decf	postinc2,w,c
  1196  0008FA  A4D8               	btfss	status,2,c
  1197  0008FC  EF82  F004         	goto	u7_21
  1198  000900  EF84  F004         	goto	u7_20
  1199  000904                     u7_21:
  1200  000904  EF65  F005         	goto	l1033
  1201  000908                     u7_20:
  1202  000908                     
  1203                           ;stkvar	task_delay@pos_task @ sp[(-8)+4]
  1204  000908  0EFC               	movlw	-4
  1205  00090A  CFE3 F034          	movff	plusw1,btemp+10
  1206  00090E  0EFD               	movlw	-3
  1207  000910  CFE3 F035          	movff	plusw1,btemp+11
  1208  000914  0E53               	movlw	83
  1209  000916  0234               	mulwf	(btemp+10)^0,c
  1210  000918  CFF3 F032          	movff	prodl,btemp+8
  1211  00091C  CFF4 F033          	movff	prodh,btemp+9
  1212  000920  0235               	mulwf	(btemp+11)^0,c
  1213  000922  50F3               	movf	prodl,w,c
  1214  000924  2633               	addwf	(btemp+9)^0,f,c
  1215  000926  0ED7               	movlw	low (_READY_queue+4)
  1216  000928  2432               	addwf	(btemp+8)^0,w,c
  1217  00092A  6ED9               	movwf	fsr2l,c
  1218  00092C  0E00               	movlw	high (_READY_queue+4)
  1219  00092E  2033               	addwfc	(btemp+9)^0,w,c
  1220  000930  6EDA               	movwf	fsr2h,c
  1221  000932  0E03               	movlw	3
  1222  000934  6EDF               	movwf	indf2,c
  1223  000936  50E0               	movf	224,w,c	;volatile
  1224  000938  6E33               	movwf	(btemp+9)^0,c
  1225  00093A  6A34               	clrf	(btemp+10)^0,c
  1226  00093C  6A35               	clrf	(btemp+11)^0,c
  1227                           
  1228                           ;stkvar	task_delay@pos_task @ sp[(-8)+4]
  1229  00093E  0EFC               	movlw	-4
  1230  000940  CFE3 F030          	movff	plusw1,btemp+6
  1231  000944  0EFD               	movlw	-3
  1232  000946  CFE3 F031          	movff	plusw1,btemp+7
  1233  00094A  0E53               	movlw	83
  1234  00094C  0230               	mulwf	(btemp+6)^0,c
  1235  00094E  CFF3 F02E          	movff	prodl,btemp+4
  1236  000952  CFF4 F02F          	movff	prodh,btemp+5
  1237  000956  0231               	mulwf	(btemp+7)^0,c
  1238  000958  50F3               	movf	prodl,w,c
  1239  00095A  262F               	addwf	(btemp+5)^0,f,c
  1240  00095C  0E1B               	movlw	low (_READY_queue+72)
  1241  00095E  242E               	addwf	(btemp+4)^0,w,c
  1242  000960  6ED9               	movwf	fsr2l,c
  1243  000962  0E01               	movlw	high (_READY_queue+72)
  1244  000964  202F               	addwfc	(btemp+5)^0,w,c
  1245  000966  6EDA               	movwf	fsr2h,c
  1246  000968  C033  FFDE         	movff	btemp+9,postinc2
  1247  00096C  C034  FFDE         	movff	btemp+10,postinc2
  1248  000970  C035  FFDE         	movff	btemp+11,postinc2
  1249  000974  50D8               	movf	216,w,c	;volatile
  1250  000976  6E33               	movwf	(btemp+9)^0,c
  1251  000978  6A34               	clrf	(btemp+10)^0,c
  1252  00097A  6A35               	clrf	(btemp+11)^0,c
  1253                           
  1254                           ;stkvar	task_delay@pos_task @ sp[(-8)+4]
  1255  00097C  0EFC               	movlw	-4
  1256  00097E  CFE3 F030          	movff	plusw1,btemp+6
  1257  000982  0EFD               	movlw	-3
  1258  000984  CFE3 F031          	movff	plusw1,btemp+7
  1259  000988  0E53               	movlw	83
  1260  00098A  0230               	mulwf	(btemp+6)^0,c
  1261  00098C  CFF3 F02E          	movff	prodl,btemp+4
  1262  000990  CFF4 F02F          	movff	prodh,btemp+5
  1263  000994  0231               	mulwf	(btemp+7)^0,c
  1264  000996  50F3               	movf	prodl,w,c
  1265  000998  262F               	addwf	(btemp+5)^0,f,c
  1266  00099A  0E1E               	movlw	low (_READY_queue+75)
  1267  00099C  242E               	addwf	(btemp+4)^0,w,c
  1268  00099E  6ED9               	movwf	fsr2l,c
  1269  0009A0  0E01               	movlw	high (_READY_queue+75)
  1270  0009A2  202F               	addwfc	(btemp+5)^0,w,c
  1271  0009A4  6EDA               	movwf	fsr2h,c
  1272  0009A6  C033  FFDE         	movff	btemp+9,postinc2
  1273  0009AA  C034  FFDE         	movff	btemp+10,postinc2
  1274  0009AE  C035  FFDE         	movff	btemp+11,postinc2
  1275  0009B2  6E33               	movwf	(btemp+9)^0,c
  1276  0009B4  6A34               	clrf	(btemp+10)^0,c
  1277  0009B6  6A35               	clrf	(btemp+11)^0,c
  1278                           
  1279                           ;stkvar	task_delay@pos_task @ sp[(-8)+4]
  1280  0009B8  0EFC               	movlw	-4
  1281  0009BA  CFE3 F030          	movff	plusw1,btemp+6
  1282  0009BE  0EFD               	movlw	-3
  1283  0009C0  CFE3 F031          	movff	plusw1,btemp+7
  1284  0009C4  0E53               	movlw	83
  1285  0009C6  0230               	mulwf	(btemp+6)^0,c
  1286  0009C8  CFF3 F02E          	movff	prodl,btemp+4
  1287  0009CC  CFF4 F02F          	movff	prodh,btemp+5
  1288  0009D0  0231               	mulwf	(btemp+7)^0,c
  1289  0009D2  50F3               	movf	prodl,w,c
  1290  0009D4  262F               	addwf	(btemp+5)^0,f,c
  1291  0009D6  0E21               	movlw	low (_READY_queue+78)
  1292  0009D8  242E               	addwf	(btemp+4)^0,w,c
  1293  0009DA  6ED9               	movwf	fsr2l,c
  1294  0009DC  0E01               	movlw	high (_READY_queue+78)
  1295  0009DE  202F               	addwfc	(btemp+5)^0,w,c
  1296  0009E0  6EDA               	movwf	fsr2h,c
  1297  0009E2  C033  FFDE         	movff	btemp+9,postinc2
  1298  0009E6  C034  FFDE         	movff	btemp+10,postinc2
  1299  0009EA  C035  FFDE         	movff	btemp+11,postinc2
  1300  0009EE                     l1025:
  1301                           
  1302                           ;stkvar	task_delay@task_stack_size @ sp[(-8)+6]
  1303  0009EE  0EFE               	movlw	-2
  1304  0009F0  CFE3 F034          	movff	plusw1,btemp+10
  1305  0009F4  0EFF               	movlw	-1
  1306  0009F6  CFE3 F035          	movff	plusw1,btemp+11
  1307  0009FA  0E03               	movlw	3
  1308  0009FC  0234               	mulwf	(btemp+10)^0,c
  1309  0009FE  CFF3 F032          	movff	prodl,btemp+8
  1310  000A02  CFF4 F033          	movff	prodh,btemp+9
  1311  000A06  0235               	mulwf	(btemp+11)^0,c
  1312  000A08  50F3               	movf	prodl,w,c
  1313  000A0A  2633               	addwf	(btemp+9)^0,f,c
  1314                           
  1315                           ;stkvar	task_delay@pos_task @ sp[(-8)+4]
  1316  000A0C  0EFC               	movlw	-4
  1317  000A0E  CFE3 F034          	movff	plusw1,btemp+10
  1318  000A12  0EFD               	movlw	-3
  1319  000A14  CFE3 F035          	movff	plusw1,btemp+11
  1320  000A18  0E53               	movlw	83
  1321  000A1A  0234               	mulwf	(btemp+10)^0,c
  1322  000A1C  CFF3 F030          	movff	prodl,btemp+6
  1323  000A20  CFF4 F031          	movff	prodh,btemp+7
  1324  000A24  0235               	mulwf	(btemp+11)^0,c
  1325  000A26  50F3               	movf	prodl,w,c
  1326  000A28  2631               	addwf	(btemp+7)^0,f,c
  1327  000A2A  0ED3               	movlw	low _READY_queue
  1328  000A2C  6E34               	movwf	(btemp+10)^0,c
  1329  000A2E  0E00               	movlw	high _READY_queue
  1330  000A30  6E35               	movwf	(btemp+11)^0,c
  1331  000A32  0E07               	movlw	7
  1332  000A34  2634               	addwf	(btemp+10)^0,f,c
  1333  000A36  0E00               	movlw	0
  1334  000A38  2235               	addwfc	(btemp+11)^0,f,c
  1335  000A3A  5030               	movf	(btemp+6)^0,w,c
  1336  000A3C  2634               	addwf	(btemp+10)^0,f,c
  1337  000A3E  5031               	movf	(btemp+7)^0,w,c
  1338  000A40  2235               	addwfc	(btemp+11)^0,f,c
  1339  000A42  5032               	movf	(btemp+8)^0,w,c
  1340  000A44  2434               	addwf	(btemp+10)^0,w,c
  1341  000A46  6ED9               	movwf	fsr2l,c
  1342  000A48  5033               	movf	(btemp+9)^0,w,c
  1343  000A4A  2035               	addwfc	(btemp+11)^0,w,c
  1344  000A4C  6EDA               	movwf	fsr2h,c
  1345  000A4E  CFFD FFDE          	movff	tosl,postinc2	;volatile
  1346  000A52  CFFE FFDE          	movff	tosh,postinc2	;volatile
  1347  000A56  CFFF FFDE          	movff	tosu,postinc2	;volatile
  1348  000A5A                     
  1349                           ;stkvar	task_delay@task_stack_size @ sp[(-8)+6]
  1350  000A5A  0EFE               	movlw	-2
  1351  000A5C  50E3               	movf	plusw1,w,c
  1352  000A5E  0F01               	addlw	1
  1353  000A60  6E2A               	movwf	btemp^0,c
  1354  000A62  0EFE               	movlw	-2
  1355  000A64  C02A  FFE3         	movff	btemp,plusw1
  1356  000A68  6A2A               	clrf	btemp^0,c
  1357  000A6A  0EFF               	movlw	-1
  1358  000A6C  50E3               	movf	plusw1,w,c
  1359  000A6E  202A               	addwfc	btemp^0,w,c
  1360  000A70  6E2A               	movwf	btemp^0,c
  1361  000A72  0EFF               	movlw	-1
  1362  000A74  C02A  FFE3         	movff	btemp,plusw1
  1363  000A78  0006               	pop		;# 
  1364  000A7A  50FC               	movf	252,w,c	;volatile
  1365  000A7C  A4D8               	btfss	status,2,c
  1366  000A7E  EF43  F005         	goto	u8_21
  1367  000A82  EF45  F005         	goto	u8_20
  1368  000A86                     u8_21:
  1369  000A86  EFF7  F004         	goto	l1025
  1370  000A8A                     u8_20:
  1371  000A8A                     
  1372                           ;stkvar	task_delay@task_stack_size @ sp[(-8)+6]
  1373  000A8A  50E1               	movf	fsr1l,w,c
  1374  000A8C  0FFE               	addlw	-2
  1375  000A8E  6ED9               	movwf	fsr2l,c
  1376  000A90  50E2               	movf	fsr1h,w,c
  1377  000A92  6EDA               	movwf	fsr2h,c
  1378  000A94  0EFF               	movlw	255
  1379  000A96  22DA               	addwfc	fsr2h,f,c
  1380                           
  1381                           ;stkvar	task_delay@pos_task @ sp[(-8)+4]
  1382  000A98  0EFC               	movlw	-4
  1383  000A9A  CFE3 F034          	movff	plusw1,btemp+10
  1384  000A9E  0EFD               	movlw	-3
  1385  000AA0  CFE3 F035          	movff	plusw1,btemp+11
  1386  000AA4  0E53               	movlw	83
  1387  000AA6  0234               	mulwf	(btemp+10)^0,c
  1388  000AA8  CFF3 F032          	movff	prodl,btemp+8
  1389  000AAC  CFF4 F033          	movff	prodh,btemp+9
  1390  000AB0  0235               	mulwf	(btemp+11)^0,c
  1391  000AB2  50F3               	movf	prodl,w,c
  1392  000AB4  2633               	addwf	(btemp+9)^0,f,c
  1393  000AB6  0E19               	movlw	low (_READY_queue+70)
  1394  000AB8  2432               	addwf	(btemp+8)^0,w,c
  1395  000ABA  6EE9               	movwf	fsr0l,c
  1396  000ABC  0E01               	movlw	high (_READY_queue+70)
  1397  000ABE  2033               	addwfc	(btemp+9)^0,w,c
  1398  000AC0  6EEA               	movwf	fsr0h,c
  1399  000AC2  CFDE FFEE          	movff	postinc2,postinc0
  1400  000AC6  CFDD FFED          	movff	postdec2,postdec0
  1401  000ACA                     l1033:
  1402                           
  1403                           ;kernel.c: 72: 
  1404  000ACA  ECC0  F008         	call	_scheduler	;wreg free
  1405  000ACE                     
  1406                           ;stkvar	task_delay@pos_task_295 @ sp[(-8)+2]
  1407  000ACE  0EFA               	movlw	-6
  1408  000AD0  C221  FFE3         	movff	_READY_queue+334,plusw1
  1409  000AD4  0EFB               	movlw	-5
  1410  000AD6  C222  FFE3         	movff	_READY_queue+335,plusw1
  1411  000ADA                     
  1412                           ;stkvar	task_delay@pos_task_295 @ sp[(-8)+2]
  1413  000ADA  0EFA               	movlw	-6
  1414  000ADC  CFE3 F034          	movff	plusw1,btemp+10
  1415  000AE0  0EFB               	movlw	-5
  1416  000AE2  CFE3 F035          	movff	plusw1,btemp+11
  1417  000AE6  0E53               	movlw	83
  1418  000AE8  0234               	mulwf	(btemp+10)^0,c
  1419  000AEA  CFF3 F032          	movff	prodl,btemp+8
  1420  000AEE  CFF4 F033          	movff	prodh,btemp+9
  1421  000AF2  0235               	mulwf	(btemp+11)^0,c
  1422  000AF4  50F3               	movf	prodl,w,c
  1423  000AF6  2633               	addwf	(btemp+9)^0,f,c
  1424  000AF8  0ED7               	movlw	low (_READY_queue+4)
  1425  000AFA  2432               	addwf	(btemp+8)^0,w,c
  1426  000AFC  6ED9               	movwf	fsr2l,c
  1427  000AFE  0E00               	movlw	high (_READY_queue+4)
  1428  000B00  2033               	addwfc	(btemp+9)^0,w,c
  1429  000B02  6EDA               	movwf	fsr2h,c
  1430  000B04  0E01               	movlw	1
  1431  000B06  6EDF               	movwf	indf2,c
  1432  000B08                     
  1433                           ;stkvar	task_delay@pos_task_295 @ sp[(-8)+2]
  1434  000B08  0EFA               	movlw	-6
  1435  000B0A  CFE3 F034          	movff	plusw1,btemp+10
  1436  000B0E  0EFB               	movlw	-5
  1437  000B10  CFE3 F035          	movff	plusw1,btemp+11
  1438  000B14  0E53               	movlw	83
  1439  000B16  0234               	mulwf	(btemp+10)^0,c
  1440  000B18  CFF3 F032          	movff	prodl,btemp+8
  1441  000B1C  CFF4 F033          	movff	prodh,btemp+9
  1442  000B20  0235               	mulwf	(btemp+11)^0,c
  1443  000B22  50F3               	movf	prodl,w,c
  1444  000B24  2633               	addwf	(btemp+9)^0,f,c
  1445  000B26  0E1B               	movlw	low (_READY_queue+72)
  1446  000B28  2432               	addwf	(btemp+8)^0,w,c
  1447  000B2A  6ED9               	movwf	fsr2l,c
  1448  000B2C  0E01               	movlw	high (_READY_queue+72)
  1449  000B2E  2033               	addwfc	(btemp+9)^0,w,c
  1450  000B30  6EDA               	movwf	fsr2h,c
  1451  000B32  50DF               	movf	indf2,w,c
  1452  000B34  6EE0               	movwf	224,c	;volatile
  1453  000B36                     
  1454                           ;stkvar	task_delay@pos_task_295 @ sp[(-8)+2]
  1455  000B36  0EFA               	movlw	-6
  1456  000B38  CFE3 F034          	movff	plusw1,btemp+10
  1457  000B3C  0EFB               	movlw	-5
  1458  000B3E  CFE3 F035          	movff	plusw1,btemp+11
  1459  000B42  0E53               	movlw	83
  1460  000B44  0234               	mulwf	(btemp+10)^0,c
  1461  000B46  CFF3 F032          	movff	prodl,btemp+8
  1462  000B4A  CFF4 F033          	movff	prodh,btemp+9
  1463  000B4E  0235               	mulwf	(btemp+11)^0,c
  1464  000B50  50F3               	movf	prodl,w,c
  1465  000B52  2633               	addwf	(btemp+9)^0,f,c
  1466  000B54  0E1E               	movlw	low (_READY_queue+75)
  1467  000B56  2432               	addwf	(btemp+8)^0,w,c
  1468  000B58  6ED9               	movwf	fsr2l,c
  1469  000B5A  0E01               	movlw	high (_READY_queue+75)
  1470  000B5C  2033               	addwfc	(btemp+9)^0,w,c
  1471  000B5E  6EDA               	movwf	fsr2h,c
  1472  000B60  50DF               	movf	indf2,w,c
  1473  000B62  6ED8               	movwf	216,c	;volatile
  1474  000B64                     
  1475                           ;stkvar	task_delay@pos_task_295 @ sp[(-8)+2]
  1476  000B64  0EFA               	movlw	-6
  1477  000B66  CFE3 F034          	movff	plusw1,btemp+10
  1478  000B6A  0EFB               	movlw	-5
  1479  000B6C  CFE3 F035          	movff	plusw1,btemp+11
  1480  000B70  0E53               	movlw	83
  1481  000B72  0234               	mulwf	(btemp+10)^0,c
  1482  000B74  CFF3 F032          	movff	prodl,btemp+8
  1483  000B78  CFF4 F033          	movff	prodh,btemp+9
  1484  000B7C  0235               	mulwf	(btemp+11)^0,c
  1485  000B7E  50F3               	movf	prodl,w,c
  1486  000B80  2633               	addwf	(btemp+9)^0,f,c
  1487  000B82  0E21               	movlw	low (_READY_queue+78)
  1488  000B84  2432               	addwf	(btemp+8)^0,w,c
  1489  000B86  6ED9               	movwf	fsr2l,c
  1490  000B88  0E01               	movlw	high (_READY_queue+78)
  1491  000B8A  2033               	addwfc	(btemp+9)^0,w,c
  1492  000B8C  6EDA               	movwf	fsr2h,c
  1493  000B8E  50DF               	movf	indf2,w,c
  1494  000B90  6E35               	movwf	(btemp+11)^0,c
  1495  000B92  5035               	movf	(btemp+11)^0,w,c
  1496  000B94  6AFC               	clrf	252,c	;volatile
  1497  000B96                     
  1498                           ;stkvar	task_delay@pos_task_295 @ sp[(-8)+2]
  1499  000B96  0EFA               	movlw	-6
  1500  000B98  CFE3 F034          	movff	plusw1,btemp+10
  1501  000B9C  0EFB               	movlw	-5
  1502  000B9E  CFE3 F035          	movff	plusw1,btemp+11
  1503  000BA2  0E53               	movlw	83
  1504  000BA4  0234               	mulwf	(btemp+10)^0,c
  1505  000BA6  CFF3 F032          	movff	prodl,btemp+8
  1506  000BAA  CFF4 F033          	movff	prodh,btemp+9
  1507  000BAE  0235               	mulwf	(btemp+11)^0,c
  1508  000BB0  50F3               	movf	prodl,w,c
  1509  000BB2  2633               	addwf	(btemp+9)^0,f,c
  1510  000BB4  0E19               	movlw	low (_READY_queue+70)
  1511  000BB6  2432               	addwf	(btemp+8)^0,w,c
  1512  000BB8  6ED9               	movwf	fsr2l,c
  1513  000BBA  0E01               	movlw	high (_READY_queue+70)
  1514  000BBC  2033               	addwfc	(btemp+9)^0,w,c
  1515  000BBE  6EDA               	movwf	fsr2h,c
  1516  000BC0  50DE               	movf	postinc2,w,c
  1517  000BC2  10DE               	iorwf	postinc2,w,c
  1518  000BC4  B4D8               	btfsc	status,2,c
  1519  000BC6  EFE7  F005         	goto	u9_21
  1520  000BCA  EFE9  F005         	goto	u9_20
  1521  000BCE                     u9_21:
  1522  000BCE  EF5E  F006         	goto	l70
  1523  000BD2                     u9_20:
  1524  000BD2                     
  1525                           ;stkvar	task_delay@pos_task_295 @ sp[(-8)+2]
  1526  000BD2  0EFA               	movlw	-6
  1527  000BD4  CFE3 F034          	movff	plusw1,btemp+10
  1528  000BD8  0EFB               	movlw	-5
  1529  000BDA  CFE3 F035          	movff	plusw1,btemp+11
  1530  000BDE  0E53               	movlw	83
  1531  000BE0  0234               	mulwf	(btemp+10)^0,c
  1532  000BE2  CFF3 F032          	movff	prodl,btemp+8
  1533  000BE6  CFF4 F033          	movff	prodh,btemp+9
  1534  000BEA  0235               	mulwf	(btemp+11)^0,c
  1535  000BEC  50F3               	movf	prodl,w,c
  1536  000BEE  2633               	addwf	(btemp+9)^0,f,c
  1537  000BF0  0E19               	movlw	low (_READY_queue+70)
  1538  000BF2  2432               	addwf	(btemp+8)^0,w,c
  1539  000BF4  6ED9               	movwf	fsr2l,c
  1540  000BF6  0E01               	movlw	high (_READY_queue+70)
  1541  000BF8  2033               	addwfc	(btemp+9)^0,w,c
  1542  000BFA  6EDA               	movwf	fsr2h,c
  1543  000BFC  CFDE F034          	movff	postinc2,btemp+10
  1544  000C00  CFDD F035          	movff	postdec2,btemp+11
  1545                           
  1546                           ;stkvar	task_delay@task_stack_size_296 @ sp[(-8)+0]
  1547  000C04  0EF8               	movlw	-8
  1548  000C06  C034  FFE3         	movff	btemp+10,plusw1
  1549  000C0A  0EF9               	movlw	-7
  1550  000C0C  C035  FFE3         	movff	btemp+11,plusw1
  1551  000C10                     l71:
  1552  000C10  0005               	push		;# 
  1553  000C12                     
  1554                           ;stkvar	task_delay@task_stack_size_296 @ sp[(-8)+0]
  1555  000C12  0EF8               	movlw	-8
  1556  000C14  CFE3 F02A          	movff	plusw1,btemp
  1557  000C18  0E01               	movlw	1
  1558  000C1A  5E2A               	subwf	btemp^0,f,c
  1559  000C1C  0EF8               	movlw	-8
  1560  000C1E  C02A  FFE3         	movff	btemp,plusw1
  1561  000C22  0EF9               	movlw	-7
  1562  000C24  CFE3 F02A          	movff	plusw1,btemp
  1563  000C28  0E00               	movlw	0
  1564  000C2A  5A2A               	subwfb	btemp^0,f,c
  1565  000C2C  0EF9               	movlw	-7
  1566  000C2E  C02A  FFE3         	movff	btemp,plusw1
  1567  000C32                     
  1568                           ;stkvar	task_delay@task_stack_size_296 @ sp[(-8)+0]
  1569  000C32  0EF8               	movlw	-8
  1570  000C34  CFE3 F034          	movff	plusw1,btemp+10
  1571  000C38  0EF9               	movlw	-7
  1572  000C3A  CFE3 F035          	movff	plusw1,btemp+11
  1573  000C3E  0E03               	movlw	3
  1574  000C40  0234               	mulwf	(btemp+10)^0,c
  1575  000C42  CFF3 F032          	movff	prodl,btemp+8
  1576  000C46  CFF4 F033          	movff	prodh,btemp+9
  1577  000C4A  0235               	mulwf	(btemp+11)^0,c
  1578  000C4C  50F3               	movf	prodl,w,c
  1579  000C4E  2633               	addwf	(btemp+9)^0,f,c
  1580                           
  1581                           ;stkvar	task_delay@pos_task_295 @ sp[(-8)+2]
  1582  000C50  0EFA               	movlw	-6
  1583  000C52  CFE3 F034          	movff	plusw1,btemp+10
  1584  000C56  0EFB               	movlw	-5
  1585  000C58  CFE3 F035          	movff	plusw1,btemp+11
  1586  000C5C  0E53               	movlw	83
  1587  000C5E  0234               	mulwf	(btemp+10)^0,c
  1588  000C60  CFF3 F030          	movff	prodl,btemp+6
  1589  000C64  CFF4 F031          	movff	prodh,btemp+7
  1590  000C68  0235               	mulwf	(btemp+11)^0,c
  1591  000C6A  50F3               	movf	prodl,w,c
  1592  000C6C  2631               	addwf	(btemp+7)^0,f,c
  1593  000C6E  0ED3               	movlw	low _READY_queue
  1594  000C70  6E34               	movwf	(btemp+10)^0,c
  1595  000C72  0E00               	movlw	high _READY_queue
  1596  000C74  6E35               	movwf	(btemp+11)^0,c
  1597  000C76  0E07               	movlw	7
  1598  000C78  2634               	addwf	(btemp+10)^0,f,c
  1599  000C7A  0E00               	movlw	0
  1600  000C7C  2235               	addwfc	(btemp+11)^0,f,c
  1601  000C7E  5030               	movf	(btemp+6)^0,w,c
  1602  000C80  2634               	addwf	(btemp+10)^0,f,c
  1603  000C82  5031               	movf	(btemp+7)^0,w,c
  1604  000C84  2235               	addwfc	(btemp+11)^0,f,c
  1605  000C86  5032               	movf	(btemp+8)^0,w,c
  1606  000C88  2434               	addwf	(btemp+10)^0,w,c
  1607  000C8A  6ED9               	movwf	fsr2l,c
  1608  000C8C  5033               	movf	(btemp+9)^0,w,c
  1609  000C8E  2035               	addwfc	(btemp+11)^0,w,c
  1610  000C90  6EDA               	movwf	fsr2h,c
  1611  000C92  CFDE FFFD          	movff	postinc2,tosl	;volatile
  1612  000C96  CFDE FFFE          	movff	postinc2,tosh	;volatile
  1613  000C9A  CFDD FFFF          	movff	postdec2,tosu	;volatile
  1614  000C9E                     
  1615                           ;stkvar	task_delay@task_stack_size_296 @ sp[(-8)+0]
  1616  000C9E  0EF8               	movlw	-8
  1617  000CA0  CFE3 F02A          	movff	plusw1,btemp
  1618  000CA4  0EF9               	movlw	-7
  1619  000CA6  50E3               	movf	plusw1,w,c
  1620  000CA8  102A               	iorwf	btemp^0,w,c
  1621  000CAA  A4D8               	btfss	status,2,c
  1622  000CAC  EF5A  F006         	goto	u10_21
  1623  000CB0  EF5C  F006         	goto	u10_20
  1624  000CB4                     u10_21:
  1625  000CB4  EF08  F006         	goto	l71
  1626  000CB8                     u10_20:
  1627  000CB8  EF96  F006         	goto	l1059
  1628  000CBC                     l70:
  1629  000CBC  0005               	push		;# 
  1630  000CBE                     
  1631                           ;stkvar	task_delay@pos_task_295 @ sp[(-8)+2]
  1632  000CBE  0EFA               	movlw	-6
  1633  000CC0  CFE3 F034          	movff	plusw1,btemp+10
  1634  000CC4  0EFB               	movlw	-5
  1635  000CC6  CFE3 F035          	movff	plusw1,btemp+11
  1636  000CCA  0E53               	movlw	83
  1637  000CCC  0234               	mulwf	(btemp+10)^0,c
  1638  000CCE  CFF3 F032          	movff	prodl,btemp+8
  1639  000CD2  CFF4 F033          	movff	prodh,btemp+9
  1640  000CD6  0235               	mulwf	(btemp+11)^0,c
  1641  000CD8  50F3               	movf	prodl,w,c
  1642  000CDA  2633               	addwf	(btemp+9)^0,f,c
  1643  000CDC  0ED8               	movlw	low (_READY_queue+5)
  1644  000CDE  2432               	addwf	(btemp+8)^0,w,c
  1645  000CE0  6ED9               	movwf	fsr2l,c
  1646  000CE2  0E00               	movlw	high (_READY_queue+5)
  1647  000CE4  2033               	addwfc	(btemp+9)^0,w,c
  1648  000CE6  6EDA               	movwf	fsr2h,c
  1649  000CE8  CFDE F034          	movff	postinc2,btemp+10
  1650  000CEC  CFDD F035          	movff	postdec2,btemp+11
  1651  000CF0  C034  FFFD         	movff	btemp+10,tosl	;volatile
  1652  000CF4  C035  FFFE         	movff	btemp+11,tosh	;volatile
  1653  000CF8  6AFF               	clrf	255,c	;volatile
  1654                           
  1655                           ;stkvar	task_delay@pos_task_295 @ sp[(-8)+2]
  1656  000CFA  0EFA               	movlw	-6
  1657  000CFC  CFE3 F034          	movff	plusw1,btemp+10
  1658  000D00  0EFB               	movlw	-5
  1659  000D02  CFE3 F035          	movff	plusw1,btemp+11
  1660  000D06  0E53               	movlw	83
  1661  000D08  0234               	mulwf	(btemp+10)^0,c
  1662  000D0A  CFF3 F032          	movff	prodl,btemp+8
  1663  000D0E  CFF4 F033          	movff	prodh,btemp+9
  1664  000D12  0235               	mulwf	(btemp+11)^0,c
  1665  000D14  50F3               	movf	prodl,w,c
  1666  000D16  2633               	addwf	(btemp+9)^0,f,c
  1667  000D18  0E19               	movlw	low (_READY_queue+70)
  1668  000D1A  2432               	addwf	(btemp+8)^0,w,c
  1669  000D1C  6ED9               	movwf	fsr2l,c
  1670  000D1E  0E01               	movlw	high (_READY_queue+70)
  1671  000D20  2033               	addwfc	(btemp+9)^0,w,c
  1672  000D22  6EDA               	movwf	fsr2h,c
  1673  000D24  0E01               	movlw	1
  1674  000D26  6EDE               	movwf	postinc2,c
  1675  000D28  0E00               	movlw	0
  1676  000D2A  6EDD               	movwf	postdec2,c
  1677  000D2C                     l1059:
  1678  000D2C  8EF2               	bsf	242,7,c	;volatile
  1679  000D2E                     
  1680                           ;kernel.c: 75: void __attribute__((picinterrupt(("")))) isr_INT0()
  1681  000D2E  8EF2               	bsf	242,7,c	;volatile
  1682  000D30                     
  1683                           ; _task_delay: autosize = 8, savesize = 0, parsavesize = 0, tempsize = 0 parsize = 2, ar
      +                          gsize = 2, vargsize = 0
  1684  000D30  0EF6               	movlw	246
  1685  000D32  26E1               	addwf	fsr1l,f,c
  1686  000D34  0EFF               	movlw	255
  1687  000D36  22E2               	addwfc	fsr1h,f,c
  1688  000D38  0012               	return		;funcret
  1689  000D3A                     __end_of_task_delay:
  1690                           	callstack 0
  1691                           
  1692 ;; *************** function _scheduler *****************
  1693 ;; Defined at:
  1694 ;;		line 6 in file "scheduler.c"
  1695 ;; Parameters:    Size  Location     Type
  1696 ;;		None
  1697 ;; Auto vars:     Size  Location     Type
  1698 ;;		None
  1699 ;; Return value:  Size  Location     Type
  1700 ;;                  1  [STACK] void 
  1701 ;; Registers used:
  1702 ;;		wreg, fsr1l, fsr1h, fsr2l, fsr2h, status,2, status,0, btemp, btemp+1, btemp+8, btemp+9, btemp+10, btemp+11, prodl, p
      +rodh
  1703 ;; Tracked objects:
  1704 ;;		On entry : 0/0
  1705 ;;		On exit  : 0/0
  1706 ;;		Unchanged: 0/0
  1707 ;; Data sizes:     COMRAM   BANK0   BANK1   BANK2   BANK3   BANK4   BANK5
  1708 ;;      Params:         0       0       0       0       0       0       0
  1709 ;;      Locals:         0       0       0       0       0       0       0
  1710 ;;      Temps:          0       0       0       0       0       0       0
  1711 ;;      Totals:         0       0       0       0       0       0       0
  1712 ;;Total ram usage:        0 bytes
  1713 ;; Hardware stack levels used:    1
  1714 ;; Hardware stack levels required when called:    6
  1715 ;; This function calls:
  1716 ;;		_RR_scheduler
  1717 ;; This function is called by:
  1718 ;;		_task_delay
  1719 ;;		_isr_INT0
  1720 ;;		_task_exit
  1721 ;;		_sem_wait
  1722 ;;		_sem_post
  1723 ;;		_mutex_lock
  1724 ;;		_mutex_unlock
  1725 ;; This function uses a reentrant model
  1726 ;;
  1727                           
  1728                           	psect	text12
  1729  001180                     __ptext12:
  1730                           	callstack 0
  1731  001180                     _scheduler:
  1732                           	callstack 16
  1733  001180                     
  1734                           ;scheduler.c: 9:    READY_queue.pos_task_running = RR_scheduler();
  1735  001180  EC11  F007         	call	_RR_scheduler	;wreg free
  1736  001184  C02A  F221         	movff	btemp,_READY_queue+334
  1737  001188  C02B  F222         	movff	btemp+1,_READY_queue+335
  1738  00118C                     
  1739                           ; _scheduler: autosize = 0, savesize = 0, parsavesize = 0, tempsize = 0 parsize = 0, arg
      +                          size = 0, vargsize = 0
  1740  00118C  0012               	return		;funcret
  1741  00118E                     __end_of_scheduler:
  1742                           	callstack 0
  1743                           
  1744 ;; *************** function _RR_scheduler *****************
  1745 ;; Defined at:
  1746 ;;		line 15 in file "scheduler.c"
  1747 ;; Parameters:    Size  Location     Type
  1748 ;;		None
  1749 ;; Auto vars:     Size  Location     Type
  1750 ;;  next_task       2  [STACK] unsigned int 
  1751 ;; Return value:  Size  Location     Type
  1752 ;;                  2  [STACK] unsigned int 
  1753 ;; Registers used:
  1754 ;;		wreg, fsr1l, fsr1h, fsr2l, fsr2h, status,2, status,0, btemp, btemp+1, btemp+8, btemp+9, btemp+10, btemp+11, prodl, p
      +rodh
  1755 ;; Tracked objects:
  1756 ;;		On entry : 0/0
  1757 ;;		On exit  : 0/0
  1758 ;;		Unchanged: 0/0
  1759 ;; Data sizes:     COMRAM   BANK0   BANK1   BANK2   BANK3   BANK4   BANK5
  1760 ;;      Params:         0       0       0       0       0       0       0
  1761 ;;      Locals:         0       0       0       0       0       0       0
  1762 ;;      Temps:          0       0       0       0       0       0       0
  1763 ;;      Totals:         0       0       0       0       0       0       0
  1764 ;;Total ram usage:        0 bytes
  1765 ;; Hardware stack levels used:    1
  1766 ;; Hardware stack levels required when called:    5
  1767 ;; This function calls:
  1768 ;;		___lwmod
  1769 ;; This function is called by:
  1770 ;;		_scheduler
  1771 ;; This function uses a reentrant model
  1772 ;;
  1773                           
  1774                           	psect	text13
  1775  000E22                     __ptext13:
  1776                           	callstack 0
  1777  000E22                     _RR_scheduler:
  1778                           	callstack 0
  1779                           
  1780                           ; autosize = 2, savesize = 0, parsavesize = 0, tempsize = 0 parsize = 0, argsize = 0 var
      +                          gsize = 0, retsize = 0 argfudge = 0
  1781  000E22  52E6               	movf	postinc1,f,c
  1782  000E24  52E6               	movf	postinc1,f,c
  1783  000E26                     
  1784                           ;scheduler.c: 17:    u_int next_task = READY_queue.pos_task_running;
  1785                           ;stkvar	RR_scheduler@next_task @ sp[(-2)+0]
  1786  000E26  0EFE               	movlw	-2
  1787  000E28  C221  FFE3         	movff	_READY_queue+334,plusw1
  1788  000E2C  0EFF               	movlw	-1
  1789  000E2E  C222  FFE3         	movff	_READY_queue+335,plusw1
  1790  000E32                     l957:
  1791                           
  1792                           ;scheduler.c: 20:       next_task = (next_task+1) % READY_queue.ready_queue_size;
  1793  000E32  EE22  F01F         	lfsr	2,_READY_queue+332
  1794  000E36  CFDE F034          	movff	postinc2,btemp+10
  1795  000E3A  CFDD F035          	movff	postdec2,btemp+11
  1796  000E3E  C034  FFE6         	movff	btemp+10,postinc1
  1797  000E42  C035  FFE6         	movff	btemp+11,postinc1
  1798                           
  1799                           ;stkvar	RR_scheduler@next_task @ sp[(-4)+0]
  1800  000E46  0EFC               	movlw	-4
  1801  000E48  50E3               	movf	plusw1,w,c
  1802  000E4A  0F01               	addlw	1
  1803  000E4C  6E34               	movwf	(btemp+10)^0,c
  1804  000E4E  0EFD               	movlw	-3
  1805  000E50  CFE3 F035          	movff	plusw1,btemp+11
  1806  000E54  0E00               	movlw	0
  1807  000E56  2235               	addwfc	(btemp+11)^0,f,c
  1808  000E58  C034  FFE6         	movff	btemp+10,postinc1
  1809  000E5C  C035  FFE6         	movff	btemp+11,postinc1
  1810  000E60  EC9D  F006         	call	___lwmod	;wreg free
  1811                           
  1812                           ;stkvar	RR_scheduler@next_task @ sp[(-2)+0]
  1813  000E64  0EFE               	movlw	-2
  1814  000E66  C02A  FFE3         	movff	btemp,plusw1
  1815  000E6A  0EFF               	movlw	-1
  1816  000E6C  C02B  FFE3         	movff	btemp+1,plusw1
  1817  000E70                     
  1818                           ;scheduler.c: 21:    } while (READY_queue.tasks[next_task].task_state != READY);
  1819                           ;stkvar	RR_scheduler@next_task @ sp[(-2)+0]
  1820  000E70  0EFE               	movlw	-2
  1821  000E72  CFE3 F034          	movff	plusw1,btemp+10
  1822  000E76  0EFF               	movlw	-1
  1823  000E78  CFE3 F035          	movff	plusw1,btemp+11
  1824  000E7C  0E53               	movlw	83
  1825  000E7E  0234               	mulwf	(btemp+10)^0,c
  1826  000E80  CFF3 F032          	movff	prodl,btemp+8
  1827  000E84  CFF4 F033          	movff	prodh,btemp+9
  1828  000E88  0235               	mulwf	(btemp+11)^0,c
  1829  000E8A  50F3               	movf	prodl,w,c
  1830  000E8C  2633               	addwf	(btemp+9)^0,f,c
  1831  000E8E  0ED7               	movlw	low (_READY_queue+4)
  1832  000E90  2432               	addwf	(btemp+8)^0,w,c
  1833  000E92  6ED9               	movwf	fsr2l,c
  1834  000E94  0E00               	movlw	high (_READY_queue+4)
  1835  000E96  2033               	addwfc	(btemp+9)^0,w,c
  1836  000E98  6EDA               	movwf	fsr2h,c
  1837  000E9A  50DF               	movf	indf2,w,c
  1838  000E9C  A4D8               	btfss	status,2,c
  1839  000E9E  EF53  F007         	goto	u5_21
  1840  000EA2  EF55  F007         	goto	u5_20
  1841  000EA6                     u5_21:
  1842  000EA6  EF19  F007         	goto	l957
  1843  000EAA                     u5_20:
  1844  000EAA                     
  1845                           ;scheduler.c: 23:    return next_task;
  1846                           ;stkvar	RR_scheduler@next_task @ sp[(-2)+0]
  1847  000EAA  0EFE               	movlw	-2
  1848  000EAC  CFE3 F02A          	movff	plusw1,btemp
  1849  000EB0  0EFF               	movlw	-1
  1850  000EB2  CFE3 F02B          	movff	plusw1,btemp+1
  1851  000EB6                     
  1852                           ; _RR_scheduler: autosize = 2, savesize = 0, parsavesize = 0, tempsize = 0 parsize = 0, 
      +                          argsize = 0, vargsize = 0
  1853  000EB6  52E5               	movf	postdec1,f,c
  1854  000EB8  52E5               	movf	postdec1,f,c
  1855  000EBA  0012               	return		;funcret
  1856  000EBC                     __end_of_RR_scheduler:
  1857                           	callstack 0
  1858                           
  1859 ;; *************** function ___lwmod *****************
  1860 ;; Defined at:
  1861 ;;		line 7 in file "C:\Program Files\Microchip\xc8\v2.20\pic\sources\c99\common\lwmod.c"
  1862 ;; Parameters:    Size  Location     Type
  1863 ;;  dividend        2  [STACK] unsigned int 
  1864 ;;  divisor         2  [STACK] unsigned int 
  1865 ;; Auto vars:     Size  Location     Type
  1866 ;;  counter         1  [STACK] unsigned char 
  1867 ;; Return value:  Size  Location     Type
  1868 ;;                  2  [STACK] unsigned int 
  1869 ;; Registers used:
  1870 ;;		wreg, fsr1l, fsr1h, status,2, status,0, btemp, btemp+1, btemp+8, btemp+9, btemp+10, btemp+11, prodl
  1871 ;; Tracked objects:
  1872 ;;		On entry : 0/0
  1873 ;;		On exit  : 0/0
  1874 ;;		Unchanged: 0/0
  1875 ;; Data sizes:     COMRAM   BANK0   BANK1   BANK2   BANK3   BANK4   BANK5
  1876 ;;      Params:         0       0       0       0       0       0       0
  1877 ;;      Locals:         0       0       0       0       0       0       0
  1878 ;;      Temps:          0       0       0       0       0       0       0
  1879 ;;      Totals:         0       0       0       0       0       0       0
  1880 ;;Total ram usage:        0 bytes
  1881 ;; Hardware stack levels used:    1
  1882 ;; Hardware stack levels required when called:    4
  1883 ;; This function calls:
  1884 ;;		Nothing
  1885 ;; This function is called by:
  1886 ;;		_RR_scheduler
  1887 ;; This function uses a reentrant model
  1888 ;;
  1889                           
  1890                           	psect	text14
  1891  000D3A                     __ptext14:
  1892                           	callstack 0
  1893  000D3A                     ___lwmod:
  1894                           	callstack 0
  1895                           
  1896                           ; autosize = 1, savesize = 0, parsavesize = 0, tempsize = 0 parsize = 4, argsize = 4 var
      +                          gsize = 0, retsize = 0 argfudge = 0
  1897  000D3A  52E6               	movf	postinc1,f,c
  1898  000D3C                     
  1899                           ;stkvar	___lwmod@divisor @ sp[(-1)+-4]
  1900  000D3C  0EFB               	movlw	-5
  1901  000D3E  CFE3 F02A          	movff	plusw1,btemp
  1902  000D42  0EFC               	movlw	-4
  1903  000D44  50E3               	movf	plusw1,w,c
  1904  000D46  102A               	iorwf	btemp^0,w,c
  1905  000D48  B4D8               	btfsc	status,2,c
  1906  000D4A  EFA9  F006         	goto	u1_21
  1907  000D4E  EFAB  F006         	goto	u1_20
  1908  000D52                     u1_21:
  1909  000D52  EF06  F007         	goto	l951
  1910  000D56                     u1_20:
  1911  000D56                     
  1912                           ;stkvar	___lwmod@counter @ sp[(-1)+0]
  1913  000D56  0EFF               	movlw	-1
  1914  000D58  6AE3               	clrf	plusw1,c
  1915  000D5A  2AE3               	incf	plusw1,f,c
  1916  000D5C  EFC1  F006         	goto	l941
  1917  000D60                     l937:
  1918                           
  1919                           ;stkvar	___lwmod@divisor @ sp[(-1)+-4]
  1920  000D60  0EFB               	movlw	-5
  1921  000D62  50E3               	movf	plusw1,w,c
  1922  000D64  90D8               	bcf	status,0,c
  1923  000D66  34E8               	rlcf	wreg,w,c
  1924  000D68  6E2A               	movwf	btemp^0,c
  1925  000D6A  0EFB               	movlw	-5
  1926  000D6C  C02A  FFE3         	movff	btemp,plusw1
  1927  000D70  0EFC               	movlw	-4
  1928  000D72  50E3               	movf	plusw1,w,c
  1929  000D74  34E8               	rlcf	wreg,w,c
  1930  000D76  6E2A               	movwf	btemp^0,c
  1931  000D78  0EFC               	movlw	-4
  1932  000D7A  C02A  FFE3         	movff	btemp,plusw1
  1933  000D7E                     
  1934                           ;stkvar	___lwmod@counter @ sp[(-1)+0]
  1935  000D7E  0EFF               	movlw	-1
  1936  000D80  2AE3               	incf	plusw1,f,c
  1937  000D82                     l941:
  1938                           
  1939                           ;stkvar	___lwmod@divisor @ sp[(-1)+-4]
  1940  000D82  0EFC               	movlw	-4
  1941  000D84  AEE3               	btfss	plusw1,7,c
  1942  000D86  EFC7  F006         	goto	u2_21
  1943  000D8A  EFC9  F006         	goto	u2_20
  1944  000D8E                     u2_21:
  1945  000D8E  EFB0  F006         	goto	l937
  1946  000D92                     u2_20:
  1947  000D92                     l943:
  1948                           
  1949                           ;stkvar	___lwmod@divisor @ sp[(-1)+-4]
  1950  000D92  0EFB               	movlw	-5
  1951  000D94  CFE3 F034          	movff	plusw1,btemp+10
  1952  000D98  0EFC               	movlw	-4
  1953  000D9A  CFE3 F035          	movff	plusw1,btemp+11
  1954                           
  1955                           ;stkvar	___lwmod@dividend @ sp[(-1)+-2]
  1956  000D9E  0EFD               	movlw	-3
  1957  000DA0  CFE3 F032          	movff	plusw1,btemp+8
  1958  000DA4  0EFE               	movlw	-2
  1959  000DA6  CFE3 F033          	movff	plusw1,btemp+9
  1960  000DAA  5034               	movf	(btemp+10)^0,w,c
  1961  000DAC  5C32               	subwf	(btemp+8)^0,w,c
  1962  000DAE  5035               	movf	(btemp+11)^0,w,c
  1963  000DB0  5833               	subwfb	(btemp+9)^0,w,c
  1964  000DB2  A0D8               	btfss	status,0,c
  1965  000DB4  EFDE  F006         	goto	u3_21
  1966  000DB8  EFE0  F006         	goto	u3_20
  1967  000DBC                     u3_21:
  1968  000DBC  EFF2  F006         	goto	l947
  1969  000DC0                     u3_20:
  1970  000DC0                     
  1971                           ;stkvar	___lwmod@divisor @ sp[(-1)+-4]
  1972                           ;stkvar	___lwmod@dividend @ sp[(-1)+-2]
  1973  000DC0  0EFD               	movlw	-3
  1974  000DC2  50E3               	movf	plusw1,w,c
  1975  000DC4  6E2A               	movwf	btemp^0,c
  1976  000DC6  0EFB               	movlw	-5
  1977  000DC8  50E3               	movf	plusw1,w,c
  1978  000DCA  5E2A               	subwf	btemp^0,f,c
  1979  000DCC  0EFD               	movlw	-3
  1980  000DCE  C02A  FFE3         	movff	btemp,plusw1
  1981  000DD2  0EFE               	movlw	-2
  1982  000DD4  50E3               	movf	plusw1,w,c
  1983  000DD6  6E2A               	movwf	btemp^0,c
  1984  000DD8  0EFC               	movlw	-4
  1985  000DDA  50E3               	movf	plusw1,w,c
  1986  000DDC  5A2A               	subwfb	btemp^0,f,c
  1987  000DDE  0EFE               	movlw	-2
  1988  000DE0  C02A  FFE3         	movff	btemp,plusw1
  1989  000DE4                     l947:
  1990                           
  1991                           ;stkvar	___lwmod@divisor @ sp[(-1)+-4]
  1992  000DE4  90D8               	bcf	status,0,c
  1993  000DE6  0EFC               	movlw	-4
  1994  000DE8  32E3               	rrcf	plusw1,f,c
  1995  000DEA  0EFB               	movlw	-5
  1996  000DEC  32E3               	rrcf	plusw1,f,c
  1997  000DEE                     
  1998                           ;stkvar	___lwmod@counter @ sp[(-1)+0]
  1999  000DEE  0EFF               	movlw	-1
  2000  000DF0  50E3               	movf	plusw1,w,c
  2001  000DF2  6E2A               	movwf	btemp^0,c
  2002  000DF4  0E01               	movlw	1
  2003  000DF6  5E2A               	subwf	btemp^0,f,c
  2004  000DF8  0EFF               	movlw	-1
  2005  000DFA  C02A  FFE3         	movff	btemp,plusw1
  2006  000DFE  A4D8               	btfss	status,2,c
  2007  000E00  EF04  F007         	goto	u4_21
  2008  000E04  EF06  F007         	goto	u4_20
  2009  000E08                     u4_21:
  2010  000E08  EFC9  F006         	goto	l943
  2011  000E0C                     u4_20:
  2012  000E0C                     l951:
  2013                           
  2014                           ;stkvar	___lwmod@dividend @ sp[(-1)+-2]
  2015  000E0C  0EFD               	movlw	-3
  2016  000E0E  CFE3 F02A          	movff	plusw1,btemp
  2017  000E12  0EFE               	movlw	-2
  2018  000E14  CFE3 F02B          	movff	plusw1,btemp+1
  2019  000E18                     
  2020                           ; ___lwmod: autosize = 1, savesize = 0, parsavesize = 0, tempsize = 0 parsize = 4, argsi
      +                          ze = 4, vargsize = 0
  2021  000E18  0EFB               	movlw	251
  2022  000E1A  26E1               	addwf	fsr1l,f,c
  2023  000E1C  0EFF               	movlw	255
  2024  000E1E  22E2               	addwfc	fsr1h,f,c
  2025  000E20  0012               	return		;funcret
  2026  000E22                     __end_of___lwmod:
  2027                           	callstack 0
  2028                           
  2029 ;; *************** function _isr_INT0 *****************
  2030 ;; Defined at:
  2031 ;;		line 94 in file "kernel.c"
  2032 ;; Parameters:    Size  Location     Type
  2033 ;;		None
  2034 ;; Auto vars:     Size  Location     Type
  2035 ;;  task_stack_s    2   21[COMRAM] unsigned int 
  2036 ;;  pos_task        2   31[COMRAM] unsigned int 
  2037 ;;  pos_task        2   27[COMRAM] unsigned int 
  2038 ;;  task_stack_s    2   19[COMRAM] unsigned int 
  2039 ;;  task_stack_s    2   17[COMRAM] unsigned int 
  2040 ;;  pos_task        2   29[COMRAM] unsigned int 
  2041 ;;  pos_task        2   25[COMRAM] unsigned int 
  2042 ;;  task_stack_s    2   15[COMRAM] unsigned int 
  2043 ;;  i               2   23[COMRAM] int 
  2044 ;; Return value:  Size  Location     Type
  2045 ;;                  1    wreg      void 
  2046 ;; Registers used:
  2047 ;;		wreg, fsr1l, fsr1h, fsr2l, fsr2h, status,2, status,0, btemp, btemp+1, btemp+8, btemp+9, btemp+10, btemp+11, prodl, p
      +rodh
  2048 ;; Tracked objects:
  2049 ;;		On entry : 0/0
  2050 ;;		On exit  : 0/0
  2051 ;;		Unchanged: 0/0
  2052 ;; Data sizes:     COMRAM   BANK0   BANK1   BANK2   BANK3   BANK4   BANK5
  2053 ;;      Params:         0       0       0       0       0       0       0
  2054 ;;      Locals:        18       0       0       0       0       0       0
  2055 ;;      Temps:         15       0       0       0       0       0       0
  2056 ;;      Totals:        33       0       0       0       0       0       0
  2057 ;;Total ram usage:       33 bytes
  2058 ;; Hardware stack levels used:    1
  2059 ;; Hardware stack levels required when called:    3
  2060 ;; This function calls:
  2061 ;;		___wmul
  2062 ;;		_scheduler
  2063 ;; This function is called by:
  2064 ;;		Interrupt level 2
  2065 ;; This function uses a non-reentrant model
  2066 ;;
  2067                           
  2068                           	psect	intcode
  2069  000008                     __pintcode:
  2070                           	callstack 0
  2071  000008                     _isr_INT0:
  2072                           	callstack 20
  2073                           
  2074                           ;incstack = 0
  2075  000008  ED0A  F000         	call	int_func,f	;refresh shadow registers
  2076  00000C                     
  2077                           	psect	intcode_body
  2078  000014                     __pintcode_body:
  2079                           	callstack 20
  2080  000014                     int_func:
  2081                           	callstack 20
  2082  000014  0006               	pop		; remove dummy address from shadow register refresh
  2083  000016  CFE1 F004          	movff	fsr1l,??_isr_INT0+3
  2084  00001A  CFE2 F005          	movff	fsr1h,??_isr_INT0+4
  2085  00001E  CFD9 F006          	movff	fsr2l,??_isr_INT0+5
  2086  000022  CFDA F007          	movff	fsr2h,??_isr_INT0+6
  2087  000026  CFF3 F008          	movff	prodl,??_isr_INT0+7
  2088  00002A  CFF4 F009          	movff	prodh,??_isr_INT0+8
  2089  00002E  C02A  F00A         	movff	btemp,??_isr_INT0+9
  2090  000032  C02B  F00B         	movff	btemp+1,??_isr_INT0+10
  2091  000036  C032  F00C         	movff	btemp+8,??_isr_INT0+11
  2092  00003A  C033  F00D         	movff	btemp+9,??_isr_INT0+12
  2093  00003E  C034  F00E         	movff	btemp+10,??_isr_INT0+13
  2094  000042  C035  F00F         	movff	btemp+11,??_isr_INT0+14
  2095  000046  EE13  F06E         	lfsr	1,___inthi_sp
  2096  00004A                     
  2097                           ;kernel.c: 96: ;kernel.c: 97:          { do { u_int pos_task = READY_queue.pos_task_runn
      +                          ing; READY_queue.tasks[pos_task].task_state = RUNNING; BSR = READY_queue.tasks[pos_task]
      +                          .BSR_reg; STATUS = READY_queue.tasks[pos_task].STATUS_reg; WREG = READY_queue.tasks[pos_
      +                          task].W_reg; STKPTR = 0; if (READY_queue.tasks[pos_task].task_stack.stack_size > 0) { u_
      +                          int task_stack_size = READY_queue.tasks[pos_task].task_stack.stack_size; do { __asm("PUS
      +                          H"); task_stack_size -= 1; TOS = READY_queue.tasks[pos_task].task_stack.stack[task_stack
      +                          _size]; } while (task_stack_size); } else { __asm("PUSH"); TOS = READY_queue.tasks[pos_t
      +                          ask].task_f; READY_queue.tasks[pos_task].task_stack.stack_size = 1; } (INTCONbits.GIE = 
      +                          1); } while (0); };
  2098  00004A  A2F2               	btfss	242,1,c	;volatile
  2099  00004C  EF2A  F000         	goto	i2u53_41
  2100  000050  EF2C  F000         	goto	i2u53_40
  2101  000054                     i2u53_41:
  2102  000054  EFDF  F001         	goto	i2l1577
  2103  000058                     i2u53_40:
  2104  000058  C221  F01A         	movff	_READY_queue+334,isr_INT0@pos_task
  2105  00005C  C222  F01B         	movff	_READY_queue+335,isr_INT0@pos_task+1
  2106  000060  0E00               	movlw	0
  2107  000062  6E11               	movwf	(isr_INT0@task_stack_size+1)^0,c
  2108  000064  0E00               	movlw	0
  2109  000066  6E10               	movwf	isr_INT0@task_stack_size^0,c
  2110  000068  0E53               	movlw	83
  2111  00006A  6EE6               	movwf	postinc1,c
  2112  00006C  0E00               	movlw	0
  2113  00006E  6EE6               	movwf	postinc1,c
  2114  000070  C01A  FFE6         	movff	isr_INT0@pos_task,postinc1
  2115  000074  C01B  FFE6         	movff	isr_INT0@pos_task+1,postinc1
  2116  000078  EC5E  F007         	call	___wmul	;wreg free
  2117  00007C  0ED7               	movlw	low (_READY_queue+4)
  2118  00007E  242A               	addwf	btemp^0,w,c
  2119  000080  6ED9               	movwf	fsr2l,c
  2120  000082  0E00               	movlw	high (_READY_queue+4)
  2121  000084  202B               	addwfc	(btemp+1)^0,w,c
  2122  000086  6EDA               	movwf	fsr2h,c
  2123  000088  04DE               	decf	postinc2,w,c
  2124  00008A  A4D8               	btfss	status,2,c
  2125  00008C  EF4A  F000         	goto	i2u54_41
  2126  000090  EF4C  F000         	goto	i2u54_40
  2127  000094                     i2u54_41:
  2128  000094  EFF6  F000         	goto	i2l1547
  2129  000098                     i2u54_40:
  2130  000098  0E53               	movlw	83
  2131  00009A  6EE6               	movwf	postinc1,c
  2132  00009C  0E00               	movlw	0
  2133  00009E  6EE6               	movwf	postinc1,c
  2134  0000A0  C01A  FFE6         	movff	isr_INT0@pos_task,postinc1
  2135  0000A4  C01B  FFE6         	movff	isr_INT0@pos_task+1,postinc1
  2136  0000A8  EC5E  F007         	call	___wmul	;wreg free
  2137  0000AC  0ED7               	movlw	low (_READY_queue+4)
  2138  0000AE  242A               	addwf	btemp^0,w,c
  2139  0000B0  6ED9               	movwf	fsr2l,c
  2140  0000B2  0E00               	movlw	high (_READY_queue+4)
  2141  0000B4  202B               	addwfc	(btemp+1)^0,w,c
  2142  0000B6  6EDA               	movwf	fsr2h,c
  2143  0000B8  0E00               	movlw	0
  2144  0000BA  6EDF               	movwf	indf2,c
  2145  0000BC  50E0               	movf	224,w,c	;volatile
  2146  0000BE  6E01               	movwf	??_isr_INT0^0,c
  2147  0000C0  6A02               	clrf	(??_isr_INT0+1)^0,c
  2148  0000C2  6A03               	clrf	(??_isr_INT0+2)^0,c
  2149  0000C4  0E53               	movlw	83
  2150  0000C6  6EE6               	movwf	postinc1,c
  2151  0000C8  0E00               	movlw	0
  2152  0000CA  6EE6               	movwf	postinc1,c
  2153  0000CC  C01A  FFE6         	movff	isr_INT0@pos_task,postinc1
  2154  0000D0  C01B  FFE6         	movff	isr_INT0@pos_task+1,postinc1
  2155  0000D4  EC5E  F007         	call	___wmul	;wreg free
  2156  0000D8  0E1B               	movlw	low (_READY_queue+72)
  2157  0000DA  242A               	addwf	btemp^0,w,c
  2158  0000DC  6ED9               	movwf	fsr2l,c
  2159  0000DE  0E01               	movlw	high (_READY_queue+72)
  2160  0000E0  202B               	addwfc	(btemp+1)^0,w,c
  2161  0000E2  6EDA               	movwf	fsr2h,c
  2162  0000E4  C001  FFDE         	movff	??_isr_INT0,postinc2
  2163  0000E8  C002  FFDE         	movff	??_isr_INT0+1,postinc2
  2164  0000EC  C003  FFDE         	movff	??_isr_INT0+2,postinc2
  2165  0000F0  50D8               	movf	216,w,c	;volatile
  2166  0000F2  6E01               	movwf	??_isr_INT0^0,c
  2167  0000F4  6A02               	clrf	(??_isr_INT0+1)^0,c
  2168  0000F6  6A03               	clrf	(??_isr_INT0+2)^0,c
  2169  0000F8  0E53               	movlw	83
  2170  0000FA  6EE6               	movwf	postinc1,c
  2171  0000FC  0E00               	movlw	0
  2172  0000FE  6EE6               	movwf	postinc1,c
  2173  000100  C01A  FFE6         	movff	isr_INT0@pos_task,postinc1
  2174  000104  C01B  FFE6         	movff	isr_INT0@pos_task+1,postinc1
  2175  000108  EC5E  F007         	call	___wmul	;wreg free
  2176  00010C  0E1E               	movlw	low (_READY_queue+75)
  2177  00010E  242A               	addwf	btemp^0,w,c
  2178  000110  6ED9               	movwf	fsr2l,c
  2179  000112  0E01               	movlw	high (_READY_queue+75)
  2180  000114  202B               	addwfc	(btemp+1)^0,w,c
  2181  000116  6EDA               	movwf	fsr2h,c
  2182  000118  C001  FFDE         	movff	??_isr_INT0,postinc2
  2183  00011C  C002  FFDE         	movff	??_isr_INT0+1,postinc2
  2184  000120  C003  FFDE         	movff	??_isr_INT0+2,postinc2
  2185  000124  6E01               	movwf	??_isr_INT0^0,c
  2186  000126  6A02               	clrf	(??_isr_INT0+1)^0,c
  2187  000128  6A03               	clrf	(??_isr_INT0+2)^0,c
  2188  00012A  0E53               	movlw	83
  2189  00012C  6EE6               	movwf	postinc1,c
  2190  00012E  0E00               	movlw	0
  2191  000130  6EE6               	movwf	postinc1,c
  2192  000132  C01A  FFE6         	movff	isr_INT0@pos_task,postinc1
  2193  000136  C01B  FFE6         	movff	isr_INT0@pos_task+1,postinc1
  2194  00013A  EC5E  F007         	call	___wmul	;wreg free
  2195  00013E  0E21               	movlw	low (_READY_queue+78)
  2196  000140  242A               	addwf	btemp^0,w,c
  2197  000142  6ED9               	movwf	fsr2l,c
  2198  000144  0E01               	movlw	high (_READY_queue+78)
  2199  000146  202B               	addwfc	(btemp+1)^0,w,c
  2200  000148  6EDA               	movwf	fsr2h,c
  2201  00014A  C001  FFDE         	movff	??_isr_INT0,postinc2
  2202  00014E  C002  FFDE         	movff	??_isr_INT0+1,postinc2
  2203  000152  C003  FFDE         	movff	??_isr_INT0+2,postinc2
  2204  000156                     i2l95:
  2205  000156  0E53               	movlw	83
  2206  000158  6EE6               	movwf	postinc1,c
  2207  00015A  0E00               	movlw	0
  2208  00015C  6EE6               	movwf	postinc1,c
  2209  00015E  C01A  FFE6         	movff	isr_INT0@pos_task,postinc1
  2210  000162  C01B  FFE6         	movff	isr_INT0@pos_task+1,postinc1
  2211  000166  EC5E  F007         	call	___wmul	;wreg free
  2212  00016A  0ED3               	movlw	low _READY_queue
  2213  00016C  6E01               	movwf	??_isr_INT0^0,c
  2214  00016E  0E00               	movlw	high _READY_queue
  2215  000170  6E02               	movwf	(??_isr_INT0+1)^0,c
  2216  000172  0E07               	movlw	7
  2217  000174  2601               	addwf	??_isr_INT0^0,f,c
  2218  000176  0E00               	movlw	0
  2219  000178  2202               	addwfc	(??_isr_INT0+1)^0,f,c
  2220  00017A  502A               	movf	btemp^0,w,c
  2221  00017C  2601               	addwf	??_isr_INT0^0,f,c
  2222  00017E  502B               	movf	(btemp+1)^0,w,c
  2223  000180  2202               	addwfc	(??_isr_INT0+1)^0,f,c
  2224  000182  0E03               	movlw	3
  2225  000184  6EE6               	movwf	postinc1,c
  2226  000186  0E00               	movlw	0
  2227  000188  6EE6               	movwf	postinc1,c
  2228  00018A  C010  FFE6         	movff	isr_INT0@task_stack_size,postinc1
  2229  00018E  C011  FFE6         	movff	isr_INT0@task_stack_size+1,postinc1
  2230  000192  EC5E  F007         	call	___wmul	;wreg free
  2231  000196  502A               	movf	btemp^0,w,c
  2232  000198  2401               	addwf	??_isr_INT0^0,w,c
  2233  00019A  6ED9               	movwf	fsr2l,c
  2234  00019C  502B               	movf	(btemp+1)^0,w,c
  2235  00019E  2002               	addwfc	(??_isr_INT0+1)^0,w,c
  2236  0001A0  6EDA               	movwf	fsr2h,c
  2237  0001A2  CFFD FFDE          	movff	tosl,postinc2	;volatile
  2238  0001A6  CFFE FFDE          	movff	tosh,postinc2	;volatile
  2239  0001AA  CFFF FFDE          	movff	tosu,postinc2	;volatile
  2240  0001AE  4A10               	infsnz	isr_INT0@task_stack_size^0,f,c
  2241  0001B0  2A11               	incf	(isr_INT0@task_stack_size+1)^0,f,c
  2242  0001B2  0006               	pop		;# 
  2243  0001B4  50FC               	movf	252,w,c	;volatile
  2244  0001B6  A4D8               	btfss	status,2,c
  2245  0001B8  EFE0  F000         	goto	i2u55_41
  2246  0001BC  EFE2  F000         	goto	i2u55_40
  2247  0001C0                     i2u55_41:
  2248  0001C0  EFAB  F000         	goto	i2l95
  2249  0001C4                     i2u55_40:
  2250  0001C4  0E53               	movlw	83
  2251  0001C6  6EE6               	movwf	postinc1,c
  2252  0001C8  0E00               	movlw	0
  2253  0001CA  6EE6               	movwf	postinc1,c
  2254  0001CC  C01A  FFE6         	movff	isr_INT0@pos_task,postinc1
  2255  0001D0  C01B  FFE6         	movff	isr_INT0@pos_task+1,postinc1
  2256  0001D4  EC5E  F007         	call	___wmul	;wreg free
  2257  0001D8  0E19               	movlw	low (_READY_queue+70)
  2258  0001DA  242A               	addwf	btemp^0,w,c
  2259  0001DC  6ED9               	movwf	fsr2l,c
  2260  0001DE  0E01               	movlw	high (_READY_queue+70)
  2261  0001E0  202B               	addwfc	(btemp+1)^0,w,c
  2262  0001E2  6EDA               	movwf	fsr2h,c
  2263  0001E4  C010  FFDE         	movff	isr_INT0@task_stack_size,postinc2
  2264  0001E8  C011  FFDD         	movff	isr_INT0@task_stack_size+1,postdec2
  2265  0001EC                     i2l1547:
  2266                           
  2267                           ;kernel.c: 101:       for (i = 0; i < READY_queue.ready_queue_size; i++) {
  2268  0001EC  ECC0  F008         	call	_scheduler	;wreg free
  2269  0001F0  C221  F01E         	movff	_READY_queue+334,isr_INT0@pos_task_312
  2270  0001F4  C222  F01F         	movff	_READY_queue+335,isr_INT0@pos_task_312+1
  2271  0001F8  0E53               	movlw	83
  2272  0001FA  6EE6               	movwf	postinc1,c
  2273  0001FC  0E00               	movlw	0
  2274  0001FE  6EE6               	movwf	postinc1,c
  2275  000200  C01E  FFE6         	movff	isr_INT0@pos_task_312,postinc1
  2276  000204  C01F  FFE6         	movff	isr_INT0@pos_task_312+1,postinc1
  2277  000208  EC5E  F007         	call	___wmul	;wreg free
  2278  00020C  0ED7               	movlw	low (_READY_queue+4)
  2279  00020E  242A               	addwf	btemp^0,w,c
  2280  000210  6ED9               	movwf	fsr2l,c
  2281  000212  0E00               	movlw	high (_READY_queue+4)
  2282  000214  202B               	addwfc	(btemp+1)^0,w,c
  2283  000216  6EDA               	movwf	fsr2h,c
  2284  000218  0E01               	movlw	1
  2285  00021A  6EDF               	movwf	indf2,c
  2286  00021C  0E53               	movlw	83
  2287  00021E  6EE6               	movwf	postinc1,c
  2288  000220  0E00               	movlw	0
  2289  000222  6EE6               	movwf	postinc1,c
  2290  000224  C01E  FFE6         	movff	isr_INT0@pos_task_312,postinc1
  2291  000228  C01F  FFE6         	movff	isr_INT0@pos_task_312+1,postinc1
  2292  00022C  EC5E  F007         	call	___wmul	;wreg free
  2293  000230  0E1B               	movlw	low (_READY_queue+72)
  2294  000232  242A               	addwf	btemp^0,w,c
  2295  000234  6ED9               	movwf	fsr2l,c
  2296  000236  0E01               	movlw	high (_READY_queue+72)
  2297  000238  202B               	addwfc	(btemp+1)^0,w,c
  2298  00023A  6EDA               	movwf	fsr2h,c
  2299  00023C  50DF               	movf	indf2,w,c
  2300  00023E  6EE0               	movwf	224,c	;volatile
  2301  000240  0E53               	movlw	83
  2302  000242  6EE6               	movwf	postinc1,c
  2303  000244  0E00               	movlw	0
  2304  000246  6EE6               	movwf	postinc1,c
  2305  000248  C01E  FFE6         	movff	isr_INT0@pos_task_312,postinc1
  2306  00024C  C01F  FFE6         	movff	isr_INT0@pos_task_312+1,postinc1
  2307  000250  EC5E  F007         	call	___wmul	;wreg free
  2308  000254  0E1E               	movlw	low (_READY_queue+75)
  2309  000256  242A               	addwf	btemp^0,w,c
  2310  000258  6ED9               	movwf	fsr2l,c
  2311  00025A  0E01               	movlw	high (_READY_queue+75)
  2312  00025C  202B               	addwfc	(btemp+1)^0,w,c
  2313  00025E  6EDA               	movwf	fsr2h,c
  2314  000260  50DF               	movf	indf2,w,c
  2315  000262  6ED8               	movwf	216,c	;volatile
  2316  000264  0E53               	movlw	83
  2317  000266  6EE6               	movwf	postinc1,c
  2318  000268  0E00               	movlw	0
  2319  00026A  6EE6               	movwf	postinc1,c
  2320  00026C  C01E  FFE6         	movff	isr_INT0@pos_task_312,postinc1
  2321  000270  C01F  FFE6         	movff	isr_INT0@pos_task_312+1,postinc1
  2322  000274  EC5E  F007         	call	___wmul	;wreg free
  2323  000278  0E21               	movlw	low (_READY_queue+78)
  2324  00027A  242A               	addwf	btemp^0,w,c
  2325  00027C  6ED9               	movwf	fsr2l,c
  2326  00027E  0E01               	movlw	high (_READY_queue+78)
  2327  000280  202B               	addwfc	(btemp+1)^0,w,c
  2328  000282  6EDA               	movwf	fsr2h,c
  2329  000284  50DF               	movf	indf2,w,c
  2330  000286  6E01               	movwf	??_isr_INT0^0,c
  2331  000288  5001               	movf	??_isr_INT0^0,w,c
  2332  00028A  0E00               	movlw	0
  2333  00028C  6EFC               	movwf	252,c	;volatile
  2334  00028E  0E53               	movlw	83
  2335  000290  6EE6               	movwf	postinc1,c
  2336  000292  0E00               	movlw	0
  2337  000294  6EE6               	movwf	postinc1,c
  2338  000296  C01E  FFE6         	movff	isr_INT0@pos_task_312,postinc1
  2339  00029A  C01F  FFE6         	movff	isr_INT0@pos_task_312+1,postinc1
  2340  00029E  EC5E  F007         	call	___wmul	;wreg free
  2341  0002A2  0E19               	movlw	low (_READY_queue+70)
  2342  0002A4  242A               	addwf	btemp^0,w,c
  2343  0002A6  6ED9               	movwf	fsr2l,c
  2344  0002A8  0E01               	movlw	high (_READY_queue+70)
  2345  0002AA  202B               	addwfc	(btemp+1)^0,w,c
  2346  0002AC  6EDA               	movwf	fsr2h,c
  2347  0002AE  50DE               	movf	postinc2,w,c
  2348  0002B0  10DE               	iorwf	postinc2,w,c
  2349  0002B2  B4D8               	btfsc	status,2,c
  2350  0002B4  EF5E  F001         	goto	i2u56_41
  2351  0002B8  EF60  F001         	goto	i2u56_40
  2352  0002BC                     i2u56_41:
  2353  0002BC  EFAF  F001         	goto	i2l99
  2354  0002C0                     i2u56_40:
  2355  0002C0  0E53               	movlw	83
  2356  0002C2  6EE6               	movwf	postinc1,c
  2357  0002C4  0E00               	movlw	0
  2358  0002C6  6EE6               	movwf	postinc1,c
  2359  0002C8  C01E  FFE6         	movff	isr_INT0@pos_task_312,postinc1
  2360  0002CC  C01F  FFE6         	movff	isr_INT0@pos_task_312+1,postinc1
  2361  0002D0  EC5E  F007         	call	___wmul	;wreg free
  2362  0002D4  0E19               	movlw	low (_READY_queue+70)
  2363  0002D6  242A               	addwf	btemp^0,w,c
  2364  0002D8  6ED9               	movwf	fsr2l,c
  2365  0002DA  0E01               	movlw	high (_READY_queue+70)
  2366  0002DC  202B               	addwfc	(btemp+1)^0,w,c
  2367  0002DE  6EDA               	movwf	fsr2h,c
  2368  0002E0  CFDE F012          	movff	postinc2,isr_INT0@task_stack_size_313
  2369  0002E4  CFDD F013          	movff	postdec2,isr_INT0@task_stack_size_313+1
  2370  0002E8                     i2l100:
  2371  0002E8  0005               	push		;# 
  2372  0002EA  0612               	decf	isr_INT0@task_stack_size_313^0,f,c
  2373  0002EC  A0D8               	btfss	status,0,c
  2374  0002EE  0613               	decf	(isr_INT0@task_stack_size_313+1)^0,f,c
  2375  0002F0  0E53               	movlw	83
  2376  0002F2  6EE6               	movwf	postinc1,c
  2377  0002F4  0E00               	movlw	0
  2378  0002F6  6EE6               	movwf	postinc1,c
  2379  0002F8  C01E  FFE6         	movff	isr_INT0@pos_task_312,postinc1
  2380  0002FC  C01F  FFE6         	movff	isr_INT0@pos_task_312+1,postinc1
  2381  000300  EC5E  F007         	call	___wmul	;wreg free
  2382  000304  0ED3               	movlw	low _READY_queue
  2383  000306  6E01               	movwf	??_isr_INT0^0,c
  2384  000308  0E00               	movlw	high _READY_queue
  2385  00030A  6E02               	movwf	(??_isr_INT0+1)^0,c
  2386  00030C  0E07               	movlw	7
  2387  00030E  2601               	addwf	??_isr_INT0^0,f,c
  2388  000310  0E00               	movlw	0
  2389  000312  2202               	addwfc	(??_isr_INT0+1)^0,f,c
  2390  000314  502A               	movf	btemp^0,w,c
  2391  000316  2601               	addwf	??_isr_INT0^0,f,c
  2392  000318  502B               	movf	(btemp+1)^0,w,c
  2393  00031A  2202               	addwfc	(??_isr_INT0+1)^0,f,c
  2394  00031C  0E03               	movlw	3
  2395  00031E  6EE6               	movwf	postinc1,c
  2396  000320  0E00               	movlw	0
  2397  000322  6EE6               	movwf	postinc1,c
  2398  000324  C012  FFE6         	movff	isr_INT0@task_stack_size_313,postinc1
  2399  000328  C013  FFE6         	movff	isr_INT0@task_stack_size_313+1,postinc1
  2400  00032C  EC5E  F007         	call	___wmul	;wreg free
  2401  000330  502A               	movf	btemp^0,w,c
  2402  000332  2401               	addwf	??_isr_INT0^0,w,c
  2403  000334  6ED9               	movwf	fsr2l,c
  2404  000336  502B               	movf	(btemp+1)^0,w,c
  2405  000338  2002               	addwfc	(??_isr_INT0+1)^0,w,c
  2406  00033A  6EDA               	movwf	fsr2h,c
  2407  00033C  CFDE FFFD          	movff	postinc2,tosl	;volatile
  2408  000340  CFDE FFFE          	movff	postinc2,tosh	;volatile
  2409  000344  CFDD FFFF          	movff	postdec2,tosu	;volatile
  2410  000348  5012               	movf	isr_INT0@task_stack_size_313^0,w,c
  2411  00034A  1013               	iorwf	(isr_INT0@task_stack_size_313+1)^0,w,c
  2412  00034C  A4D8               	btfss	status,2,c
  2413  00034E  EFAB  F001         	goto	i2u57_41
  2414  000352  EFAD  F001         	goto	i2u57_40
  2415  000356                     i2u57_41:
  2416  000356  EF74  F001         	goto	i2l100
  2417  00035A                     i2u57_40:
  2418  00035A  EFDD  F001         	goto	i2l1573
  2419  00035E                     i2l99:
  2420  00035E  0005               	push		;# 
  2421  000360  0E53               	movlw	83
  2422  000362  6EE6               	movwf	postinc1,c
  2423  000364  0E00               	movlw	0
  2424  000366  6EE6               	movwf	postinc1,c
  2425  000368  C01E  FFE6         	movff	isr_INT0@pos_task_312,postinc1
  2426  00036C  C01F  FFE6         	movff	isr_INT0@pos_task_312+1,postinc1
  2427  000370  EC5E  F007         	call	___wmul	;wreg free
  2428  000374  0ED8               	movlw	low (_READY_queue+5)
  2429  000376  242A               	addwf	btemp^0,w,c
  2430  000378  6ED9               	movwf	fsr2l,c
  2431  00037A  0E00               	movlw	high (_READY_queue+5)
  2432  00037C  202B               	addwfc	(btemp+1)^0,w,c
  2433  00037E  6EDA               	movwf	fsr2h,c
  2434  000380  CFDE F001          	movff	postinc2,??_isr_INT0
  2435  000384  CFDD F002          	movff	postdec2,??_isr_INT0+1
  2436  000388  C001  FFFD         	movff	??_isr_INT0,tosl	;volatile
  2437  00038C  C002  FFFE         	movff	??_isr_INT0+1,tosh	;volatile
  2438  000390  6AFF               	clrf	255,c	;volatile
  2439  000392  0E53               	movlw	83
  2440  000394  6EE6               	movwf	postinc1,c
  2441  000396  0E00               	movlw	0
  2442  000398  6EE6               	movwf	postinc1,c
  2443  00039A  C01E  FFE6         	movff	isr_INT0@pos_task_312,postinc1
  2444  00039E  C01F  FFE6         	movff	isr_INT0@pos_task_312+1,postinc1
  2445  0003A2  EC5E  F007         	call	___wmul	;wreg free
  2446  0003A6  0E19               	movlw	low (_READY_queue+70)
  2447  0003A8  242A               	addwf	btemp^0,w,c
  2448  0003AA  6ED9               	movwf	fsr2l,c
  2449  0003AC  0E01               	movlw	high (_READY_queue+70)
  2450  0003AE  202B               	addwfc	(btemp+1)^0,w,c
  2451  0003B0  6EDA               	movwf	fsr2h,c
  2452  0003B2  0E01               	movlw	1
  2453  0003B4  6EDE               	movwf	postinc2,c
  2454  0003B6  0E00               	movlw	0
  2455  0003B8  6EDD               	movwf	postdec2,c
  2456  0003BA                     i2l1573:
  2457  0003BA  8EF2               	bsf	242,7,c	;volatile
  2458  0003BC                     
  2459                           ;kernel.c: 105:                READY_queue.tasks[i].task_state = READY;
  2460  0003BC  92F2               	bcf	242,1,c	;volatile
  2461  0003BE                     i2l1577:
  2462                           
  2463                           ;kernel.c: 107:          }
  2464  0003BE  A4F2               	btfss	242,2,c	;volatile
  2465  0003C0  EFE4  F001         	goto	i2u58_41
  2466  0003C4  EFE6  F001         	goto	i2u58_40
  2467  0003C8                     i2u58_41:
  2468  0003C8  EF1F  F004         	goto	i2l122
  2469  0003CC                     i2u58_40:
  2470  0003CC                     
  2471                           ;kernel.c: 109:       TMR0 = 64;
  2472  0003CC  EE22  F023         	lfsr	2,_READY_queue+336
  2473  0003D0  06DE               	decf	postinc2,f,c
  2474  0003D2  0E00               	movlw	0
  2475  0003D4  5ADD               	subwfb	postdec2,f,c
  2476                           
  2477                           ;kernel.c: 111:    }
  2478  0003D6  EE22  F023         	lfsr	2,_READY_queue+336
  2479  0003DA  50DE               	movf	postinc2,w,c
  2480  0003DC  10DE               	iorwf	postinc2,w,c
  2481  0003DE  A4D8               	btfss	status,2,c
  2482  0003E0  EFF4  F001         	goto	i2u59_41
  2483  0003E4  EFF6  F001         	goto	i2u59_40
  2484  0003E8                     i2u59_41:
  2485  0003E8  EFAE  F003         	goto	i2l1623
  2486  0003EC                     i2u59_40:
  2487  0003EC  C221  F01C         	movff	_READY_queue+334,isr_INT0@pos_task_314
  2488  0003F0  C222  F01D         	movff	_READY_queue+335,isr_INT0@pos_task_314+1
  2489  0003F4  0E00               	movlw	0
  2490  0003F6  6E15               	movwf	(isr_INT0@task_stack_size_315+1)^0,c
  2491  0003F8  0E00               	movlw	0
  2492  0003FA  6E14               	movwf	isr_INT0@task_stack_size_315^0,c
  2493  0003FC  0E53               	movlw	83
  2494  0003FE  6EE6               	movwf	postinc1,c
  2495  000400  0E00               	movlw	0
  2496  000402  6EE6               	movwf	postinc1,c
  2497  000404  C01C  FFE6         	movff	isr_INT0@pos_task_314,postinc1
  2498  000408  C01D  FFE6         	movff	isr_INT0@pos_task_314+1,postinc1
  2499  00040C  EC5E  F007         	call	___wmul	;wreg free
  2500  000410  0ED7               	movlw	low (_READY_queue+4)
  2501  000412  242A               	addwf	btemp^0,w,c
  2502  000414  6ED9               	movwf	fsr2l,c
  2503  000416  0E00               	movlw	high (_READY_queue+4)
  2504  000418  202B               	addwfc	(btemp+1)^0,w,c
  2505  00041A  6EDA               	movwf	fsr2h,c
  2506  00041C  04DE               	decf	postinc2,w,c
  2507  00041E  A4D8               	btfss	status,2,c
  2508  000420  EF14  F002         	goto	i2u60_41
  2509  000424  EF16  F002         	goto	i2u60_40
  2510  000428                     i2u60_41:
  2511  000428  EFC0  F002         	goto	i2l1593
  2512  00042C                     i2u60_40:
  2513  00042C  0E53               	movlw	83
  2514  00042E  6EE6               	movwf	postinc1,c
  2515  000430  0E00               	movlw	0
  2516  000432  6EE6               	movwf	postinc1,c
  2517  000434  C01C  FFE6         	movff	isr_INT0@pos_task_314,postinc1
  2518  000438  C01D  FFE6         	movff	isr_INT0@pos_task_314+1,postinc1
  2519  00043C  EC5E  F007         	call	___wmul	;wreg free
  2520  000440  0ED7               	movlw	low (_READY_queue+4)
  2521  000442  242A               	addwf	btemp^0,w,c
  2522  000444  6ED9               	movwf	fsr2l,c
  2523  000446  0E00               	movlw	high (_READY_queue+4)
  2524  000448  202B               	addwfc	(btemp+1)^0,w,c
  2525  00044A  6EDA               	movwf	fsr2h,c
  2526  00044C  0E00               	movlw	0
  2527  00044E  6EDF               	movwf	indf2,c
  2528  000450  50E0               	movf	224,w,c	;volatile
  2529  000452  6E01               	movwf	??_isr_INT0^0,c
  2530  000454  6A02               	clrf	(??_isr_INT0+1)^0,c
  2531  000456  6A03               	clrf	(??_isr_INT0+2)^0,c
  2532  000458  0E53               	movlw	83
  2533  00045A  6EE6               	movwf	postinc1,c
  2534  00045C  0E00               	movlw	0
  2535  00045E  6EE6               	movwf	postinc1,c
  2536  000460  C01C  FFE6         	movff	isr_INT0@pos_task_314,postinc1
  2537  000464  C01D  FFE6         	movff	isr_INT0@pos_task_314+1,postinc1
  2538  000468  EC5E  F007         	call	___wmul	;wreg free
  2539  00046C  0E1B               	movlw	low (_READY_queue+72)
  2540  00046E  242A               	addwf	btemp^0,w,c
  2541  000470  6ED9               	movwf	fsr2l,c
  2542  000472  0E01               	movlw	high (_READY_queue+72)
  2543  000474  202B               	addwfc	(btemp+1)^0,w,c
  2544  000476  6EDA               	movwf	fsr2h,c
  2545  000478  C001  FFDE         	movff	??_isr_INT0,postinc2
  2546  00047C  C002  FFDE         	movff	??_isr_INT0+1,postinc2
  2547  000480  C003  FFDE         	movff	??_isr_INT0+2,postinc2
  2548  000484  50D8               	movf	216,w,c	;volatile
  2549  000486  6E01               	movwf	??_isr_INT0^0,c
  2550  000488  6A02               	clrf	(??_isr_INT0+1)^0,c
  2551  00048A  6A03               	clrf	(??_isr_INT0+2)^0,c
  2552  00048C  0E53               	movlw	83
  2553  00048E  6EE6               	movwf	postinc1,c
  2554  000490  0E00               	movlw	0
  2555  000492  6EE6               	movwf	postinc1,c
  2556  000494  C01C  FFE6         	movff	isr_INT0@pos_task_314,postinc1
  2557  000498  C01D  FFE6         	movff	isr_INT0@pos_task_314+1,postinc1
  2558  00049C  EC5E  F007         	call	___wmul	;wreg free
  2559  0004A0  0E1E               	movlw	low (_READY_queue+75)
  2560  0004A2  242A               	addwf	btemp^0,w,c
  2561  0004A4  6ED9               	movwf	fsr2l,c
  2562  0004A6  0E01               	movlw	high (_READY_queue+75)
  2563  0004A8  202B               	addwfc	(btemp+1)^0,w,c
  2564  0004AA  6EDA               	movwf	fsr2h,c
  2565  0004AC  C001  FFDE         	movff	??_isr_INT0,postinc2
  2566  0004B0  C002  FFDE         	movff	??_isr_INT0+1,postinc2
  2567  0004B4  C003  FFDE         	movff	??_isr_INT0+2,postinc2
  2568  0004B8  6E01               	movwf	??_isr_INT0^0,c
  2569  0004BA  6A02               	clrf	(??_isr_INT0+1)^0,c
  2570  0004BC  6A03               	clrf	(??_isr_INT0+2)^0,c
  2571  0004BE  0E53               	movlw	83
  2572  0004C0  6EE6               	movwf	postinc1,c
  2573  0004C2  0E00               	movlw	0
  2574  0004C4  6EE6               	movwf	postinc1,c
  2575  0004C6  C01C  FFE6         	movff	isr_INT0@pos_task_314,postinc1
  2576  0004CA  C01D  FFE6         	movff	isr_INT0@pos_task_314+1,postinc1
  2577  0004CE  EC5E  F007         	call	___wmul	;wreg free
  2578  0004D2  0E21               	movlw	low (_READY_queue+78)
  2579  0004D4  242A               	addwf	btemp^0,w,c
  2580  0004D6  6ED9               	movwf	fsr2l,c
  2581  0004D8  0E01               	movlw	high (_READY_queue+78)
  2582  0004DA  202B               	addwfc	(btemp+1)^0,w,c
  2583  0004DC  6EDA               	movwf	fsr2h,c
  2584  0004DE  C001  FFDE         	movff	??_isr_INT0,postinc2
  2585  0004E2  C002  FFDE         	movff	??_isr_INT0+1,postinc2
  2586  0004E6  C003  FFDE         	movff	??_isr_INT0+2,postinc2
  2587  0004EA                     i2l108:
  2588  0004EA  0E53               	movlw	83
  2589  0004EC  6EE6               	movwf	postinc1,c
  2590  0004EE  0E00               	movlw	0
  2591  0004F0  6EE6               	movwf	postinc1,c
  2592  0004F2  C01C  FFE6         	movff	isr_INT0@pos_task_314,postinc1
  2593  0004F6  C01D  FFE6         	movff	isr_INT0@pos_task_314+1,postinc1
  2594  0004FA  EC5E  F007         	call	___wmul	;wreg free
  2595  0004FE  0ED3               	movlw	low _READY_queue
  2596  000500  6E01               	movwf	??_isr_INT0^0,c
  2597  000502  0E00               	movlw	high _READY_queue
  2598  000504  6E02               	movwf	(??_isr_INT0+1)^0,c
  2599  000506  0E07               	movlw	7
  2600  000508  2601               	addwf	??_isr_INT0^0,f,c
  2601  00050A  0E00               	movlw	0
  2602  00050C  2202               	addwfc	(??_isr_INT0+1)^0,f,c
  2603  00050E  502A               	movf	btemp^0,w,c
  2604  000510  2601               	addwf	??_isr_INT0^0,f,c
  2605  000512  502B               	movf	(btemp+1)^0,w,c
  2606  000514  2202               	addwfc	(??_isr_INT0+1)^0,f,c
  2607  000516  0E03               	movlw	3
  2608  000518  6EE6               	movwf	postinc1,c
  2609  00051A  0E00               	movlw	0
  2610  00051C  6EE6               	movwf	postinc1,c
  2611  00051E  C014  FFE6         	movff	isr_INT0@task_stack_size_315,postinc1
  2612  000522  C015  FFE6         	movff	isr_INT0@task_stack_size_315+1,postinc1
  2613  000526  EC5E  F007         	call	___wmul	;wreg free
  2614  00052A  502A               	movf	btemp^0,w,c
  2615  00052C  2401               	addwf	??_isr_INT0^0,w,c
  2616  00052E  6ED9               	movwf	fsr2l,c
  2617  000530  502B               	movf	(btemp+1)^0,w,c
  2618  000532  2002               	addwfc	(??_isr_INT0+1)^0,w,c
  2619  000534  6EDA               	movwf	fsr2h,c
  2620  000536  CFFD FFDE          	movff	tosl,postinc2	;volatile
  2621  00053A  CFFE FFDE          	movff	tosh,postinc2	;volatile
  2622  00053E  CFFF FFDE          	movff	tosu,postinc2	;volatile
  2623  000542  4A14               	infsnz	isr_INT0@task_stack_size_315^0,f,c
  2624  000544  2A15               	incf	(isr_INT0@task_stack_size_315+1)^0,f,c
  2625  000546  0006               	pop		;# 
  2626  000548  50FC               	movf	252,w,c	;volatile
  2627  00054A  A4D8               	btfss	status,2,c
  2628  00054C  EFAA  F002         	goto	i2u61_41
  2629  000550  EFAC  F002         	goto	i2u61_40
  2630  000554                     i2u61_41:
  2631  000554  EF75  F002         	goto	i2l108
  2632  000558                     i2u61_40:
  2633  000558  0E53               	movlw	83
  2634  00055A  6EE6               	movwf	postinc1,c
  2635  00055C  0E00               	movlw	0
  2636  00055E  6EE6               	movwf	postinc1,c
  2637  000560  C01C  FFE6         	movff	isr_INT0@pos_task_314,postinc1
  2638  000564  C01D  FFE6         	movff	isr_INT0@pos_task_314+1,postinc1
  2639  000568  EC5E  F007         	call	___wmul	;wreg free
  2640  00056C  0E19               	movlw	low (_READY_queue+70)
  2641  00056E  242A               	addwf	btemp^0,w,c
  2642  000570  6ED9               	movwf	fsr2l,c
  2643  000572  0E01               	movlw	high (_READY_queue+70)
  2644  000574  202B               	addwfc	(btemp+1)^0,w,c
  2645  000576  6EDA               	movwf	fsr2h,c
  2646  000578  C014  FFDE         	movff	isr_INT0@task_stack_size_315,postinc2
  2647  00057C  C015  FFDD         	movff	isr_INT0@task_stack_size_315+1,postdec2
  2648  000580                     i2l1593:
  2649  000580  ECC0  F008         	call	_scheduler	;wreg free
  2650  000584  C221  F020         	movff	_READY_queue+334,isr_INT0@pos_task_316
  2651  000588  C222  F021         	movff	_READY_queue+335,isr_INT0@pos_task_316+1
  2652  00058C  0E53               	movlw	83
  2653  00058E  6EE6               	movwf	postinc1,c
  2654  000590  0E00               	movlw	0
  2655  000592  6EE6               	movwf	postinc1,c
  2656  000594  C020  FFE6         	movff	isr_INT0@pos_task_316,postinc1
  2657  000598  C021  FFE6         	movff	isr_INT0@pos_task_316+1,postinc1
  2658  00059C  EC5E  F007         	call	___wmul	;wreg free
  2659  0005A0  0ED7               	movlw	low (_READY_queue+4)
  2660  0005A2  242A               	addwf	btemp^0,w,c
  2661  0005A4  6ED9               	movwf	fsr2l,c
  2662  0005A6  0E00               	movlw	high (_READY_queue+4)
  2663  0005A8  202B               	addwfc	(btemp+1)^0,w,c
  2664  0005AA  6EDA               	movwf	fsr2h,c
  2665  0005AC  0E01               	movlw	1
  2666  0005AE  6EDF               	movwf	indf2,c
  2667  0005B0  0E53               	movlw	83
  2668  0005B2  6EE6               	movwf	postinc1,c
  2669  0005B4  0E00               	movlw	0
  2670  0005B6  6EE6               	movwf	postinc1,c
  2671  0005B8  C020  FFE6         	movff	isr_INT0@pos_task_316,postinc1
  2672  0005BC  C021  FFE6         	movff	isr_INT0@pos_task_316+1,postinc1
  2673  0005C0  EC5E  F007         	call	___wmul	;wreg free
  2674  0005C4  0E1B               	movlw	low (_READY_queue+72)
  2675  0005C6  242A               	addwf	btemp^0,w,c
  2676  0005C8  6ED9               	movwf	fsr2l,c
  2677  0005CA  0E01               	movlw	high (_READY_queue+72)
  2678  0005CC  202B               	addwfc	(btemp+1)^0,w,c
  2679  0005CE  6EDA               	movwf	fsr2h,c
  2680  0005D0  50DF               	movf	indf2,w,c
  2681  0005D2  6EE0               	movwf	224,c	;volatile
  2682  0005D4  0E53               	movlw	83
  2683  0005D6  6EE6               	movwf	postinc1,c
  2684  0005D8  0E00               	movlw	0
  2685  0005DA  6EE6               	movwf	postinc1,c
  2686  0005DC  C020  FFE6         	movff	isr_INT0@pos_task_316,postinc1
  2687  0005E0  C021  FFE6         	movff	isr_INT0@pos_task_316+1,postinc1
  2688  0005E4  EC5E  F007         	call	___wmul	;wreg free
  2689  0005E8  0E1E               	movlw	low (_READY_queue+75)
  2690  0005EA  242A               	addwf	btemp^0,w,c
  2691  0005EC  6ED9               	movwf	fsr2l,c
  2692  0005EE  0E01               	movlw	high (_READY_queue+75)
  2693  0005F0  202B               	addwfc	(btemp+1)^0,w,c
  2694  0005F2  6EDA               	movwf	fsr2h,c
  2695  0005F4  50DF               	movf	indf2,w,c
  2696  0005F6  6ED8               	movwf	216,c	;volatile
  2697  0005F8  0E53               	movlw	83
  2698  0005FA  6EE6               	movwf	postinc1,c
  2699  0005FC  0E00               	movlw	0
  2700  0005FE  6EE6               	movwf	postinc1,c
  2701  000600  C020  FFE6         	movff	isr_INT0@pos_task_316,postinc1
  2702  000604  C021  FFE6         	movff	isr_INT0@pos_task_316+1,postinc1
  2703  000608  EC5E  F007         	call	___wmul	;wreg free
  2704  00060C  0E21               	movlw	low (_READY_queue+78)
  2705  00060E  242A               	addwf	btemp^0,w,c
  2706  000610  6ED9               	movwf	fsr2l,c
  2707  000612  0E01               	movlw	high (_READY_queue+78)
  2708  000614  202B               	addwfc	(btemp+1)^0,w,c
  2709  000616  6EDA               	movwf	fsr2h,c
  2710  000618  50DF               	movf	indf2,w,c
  2711  00061A  6E01               	movwf	??_isr_INT0^0,c
  2712  00061C  5001               	movf	??_isr_INT0^0,w,c
  2713  00061E  0E00               	movlw	0
  2714  000620  6EFC               	movwf	252,c	;volatile
  2715  000622  0E53               	movlw	83
  2716  000624  6EE6               	movwf	postinc1,c
  2717  000626  0E00               	movlw	0
  2718  000628  6EE6               	movwf	postinc1,c
  2719  00062A  C020  FFE6         	movff	isr_INT0@pos_task_316,postinc1
  2720  00062E  C021  FFE6         	movff	isr_INT0@pos_task_316+1,postinc1
  2721  000632  EC5E  F007         	call	___wmul	;wreg free
  2722  000636  0E19               	movlw	low (_READY_queue+70)
  2723  000638  242A               	addwf	btemp^0,w,c
  2724  00063A  6ED9               	movwf	fsr2l,c
  2725  00063C  0E01               	movlw	high (_READY_queue+70)
  2726  00063E  202B               	addwfc	(btemp+1)^0,w,c
  2727  000640  6EDA               	movwf	fsr2h,c
  2728  000642  50DE               	movf	postinc2,w,c
  2729  000644  10DE               	iorwf	postinc2,w,c
  2730  000646  B4D8               	btfsc	status,2,c
  2731  000648  EF28  F003         	goto	i2u62_41
  2732  00064C  EF2A  F003         	goto	i2u62_40
  2733  000650                     i2u62_41:
  2734  000650  EF79  F003         	goto	i2l112
  2735  000654                     i2u62_40:
  2736  000654  0E53               	movlw	83
  2737  000656  6EE6               	movwf	postinc1,c
  2738  000658  0E00               	movlw	0
  2739  00065A  6EE6               	movwf	postinc1,c
  2740  00065C  C020  FFE6         	movff	isr_INT0@pos_task_316,postinc1
  2741  000660  C021  FFE6         	movff	isr_INT0@pos_task_316+1,postinc1
  2742  000664  EC5E  F007         	call	___wmul	;wreg free
  2743  000668  0E19               	movlw	low (_READY_queue+70)
  2744  00066A  242A               	addwf	btemp^0,w,c
  2745  00066C  6ED9               	movwf	fsr2l,c
  2746  00066E  0E01               	movlw	high (_READY_queue+70)
  2747  000670  202B               	addwfc	(btemp+1)^0,w,c
  2748  000672  6EDA               	movwf	fsr2h,c
  2749  000674  CFDE F016          	movff	postinc2,isr_INT0@task_stack_size_317
  2750  000678  CFDD F017          	movff	postdec2,isr_INT0@task_stack_size_317+1
  2751  00067C                     i2l113:
  2752  00067C  0005               	push		;# 
  2753  00067E  0616               	decf	isr_INT0@task_stack_size_317^0,f,c
  2754  000680  A0D8               	btfss	status,0,c
  2755  000682  0617               	decf	(isr_INT0@task_stack_size_317+1)^0,f,c
  2756  000684  0E53               	movlw	83
  2757  000686  6EE6               	movwf	postinc1,c
  2758  000688  0E00               	movlw	0
  2759  00068A  6EE6               	movwf	postinc1,c
  2760  00068C  C020  FFE6         	movff	isr_INT0@pos_task_316,postinc1
  2761  000690  C021  FFE6         	movff	isr_INT0@pos_task_316+1,postinc1
  2762  000694  EC5E  F007         	call	___wmul	;wreg free
  2763  000698  0ED3               	movlw	low _READY_queue
  2764  00069A  6E01               	movwf	??_isr_INT0^0,c
  2765  00069C  0E00               	movlw	high _READY_queue
  2766  00069E  6E02               	movwf	(??_isr_INT0+1)^0,c
  2767  0006A0  0E07               	movlw	7
  2768  0006A2  2601               	addwf	??_isr_INT0^0,f,c
  2769  0006A4  0E00               	movlw	0
  2770  0006A6  2202               	addwfc	(??_isr_INT0+1)^0,f,c
  2771  0006A8  502A               	movf	btemp^0,w,c
  2772  0006AA  2601               	addwf	??_isr_INT0^0,f,c
  2773  0006AC  502B               	movf	(btemp+1)^0,w,c
  2774  0006AE  2202               	addwfc	(??_isr_INT0+1)^0,f,c
  2775  0006B0  0E03               	movlw	3
  2776  0006B2  6EE6               	movwf	postinc1,c
  2777  0006B4  0E00               	movlw	0
  2778  0006B6  6EE6               	movwf	postinc1,c
  2779  0006B8  C016  FFE6         	movff	isr_INT0@task_stack_size_317,postinc1
  2780  0006BC  C017  FFE6         	movff	isr_INT0@task_stack_size_317+1,postinc1
  2781  0006C0  EC5E  F007         	call	___wmul	;wreg free
  2782  0006C4  502A               	movf	btemp^0,w,c
  2783  0006C6  2401               	addwf	??_isr_INT0^0,w,c
  2784  0006C8  6ED9               	movwf	fsr2l,c
  2785  0006CA  502B               	movf	(btemp+1)^0,w,c
  2786  0006CC  2002               	addwfc	(??_isr_INT0+1)^0,w,c
  2787  0006CE  6EDA               	movwf	fsr2h,c
  2788  0006D0  CFDE FFFD          	movff	postinc2,tosl	;volatile
  2789  0006D4  CFDE FFFE          	movff	postinc2,tosh	;volatile
  2790  0006D8  CFDD FFFF          	movff	postdec2,tosu	;volatile
  2791  0006DC  5016               	movf	isr_INT0@task_stack_size_317^0,w,c
  2792  0006DE  1017               	iorwf	(isr_INT0@task_stack_size_317+1)^0,w,c
  2793  0006E0  A4D8               	btfss	status,2,c
  2794  0006E2  EF75  F003         	goto	i2u63_41
  2795  0006E6  EF77  F003         	goto	i2u63_40
  2796  0006EA                     i2u63_41:
  2797  0006EA  EF3E  F003         	goto	i2l113
  2798  0006EE                     i2u63_40:
  2799  0006EE  EFA7  F003         	goto	i2l1619
  2800  0006F2                     i2l112:
  2801  0006F2  0005               	push		;# 
  2802  0006F4  0E53               	movlw	83
  2803  0006F6  6EE6               	movwf	postinc1,c
  2804  0006F8  0E00               	movlw	0
  2805  0006FA  6EE6               	movwf	postinc1,c
  2806  0006FC  C020  FFE6         	movff	isr_INT0@pos_task_316,postinc1
  2807  000700  C021  FFE6         	movff	isr_INT0@pos_task_316+1,postinc1
  2808  000704  EC5E  F007         	call	___wmul	;wreg free
  2809  000708  0ED8               	movlw	low (_READY_queue+5)
  2810  00070A  242A               	addwf	btemp^0,w,c
  2811  00070C  6ED9               	movwf	fsr2l,c
  2812  00070E  0E00               	movlw	high (_READY_queue+5)
  2813  000710  202B               	addwfc	(btemp+1)^0,w,c
  2814  000712  6EDA               	movwf	fsr2h,c
  2815  000714  CFDE F001          	movff	postinc2,??_isr_INT0
  2816  000718  CFDD F002          	movff	postdec2,??_isr_INT0+1
  2817  00071C  C001  FFFD         	movff	??_isr_INT0,tosl	;volatile
  2818  000720  C002  FFFE         	movff	??_isr_INT0+1,tosh	;volatile
  2819  000724  6AFF               	clrf	255,c	;volatile
  2820  000726  0E53               	movlw	83
  2821  000728  6EE6               	movwf	postinc1,c
  2822  00072A  0E00               	movlw	0
  2823  00072C  6EE6               	movwf	postinc1,c
  2824  00072E  C020  FFE6         	movff	isr_INT0@pos_task_316,postinc1
  2825  000732  C021  FFE6         	movff	isr_INT0@pos_task_316+1,postinc1
  2826  000736  EC5E  F007         	call	___wmul	;wreg free
  2827  00073A  0E19               	movlw	low (_READY_queue+70)
  2828  00073C  242A               	addwf	btemp^0,w,c
  2829  00073E  6ED9               	movwf	fsr2l,c
  2830  000740  0E01               	movlw	high (_READY_queue+70)
  2831  000742  202B               	addwfc	(btemp+1)^0,w,c
  2832  000744  6EDA               	movwf	fsr2h,c
  2833  000746  0E01               	movlw	1
  2834  000748  6EDE               	movwf	postinc2,c
  2835  00074A  0E00               	movlw	0
  2836  00074C  6EDD               	movwf	postdec2,c
  2837  00074E                     i2l1619:
  2838  00074E  8EF2               	bsf	242,7,c	;volatile
  2839  000750  0E08               	movlw	8
  2840  000752  CFE8 F223          	movff	wreg,_READY_queue+336
  2841  000756  0E00               	movlw	0
  2842  000758  CFE8 F224          	movff	wreg,_READY_queue+337
  2843  00075C                     i2l1623:
  2844  00075C  0E00               	movlw	0
  2845  00075E  6E19               	movwf	(isr_INT0@i+1)^0,c
  2846  000760  0E00               	movlw	0
  2847  000762  6E18               	movwf	isr_INT0@i^0,c
  2848  000764  EF0D  F004         	goto	i2l1633
  2849  000768                     i2l1625:
  2850  000768  0E53               	movlw	83
  2851  00076A  6EE6               	movwf	postinc1,c
  2852  00076C  0E00               	movlw	0
  2853  00076E  6EE6               	movwf	postinc1,c
  2854  000770  C018  FFE6         	movff	isr_INT0@i,postinc1
  2855  000774  C019  FFE6         	movff	isr_INT0@i+1,postinc1
  2856  000778  EC5E  F007         	call	___wmul	;wreg free
  2857  00077C  0E24               	movlw	low (_READY_queue+81)
  2858  00077E  242A               	addwf	btemp^0,w,c
  2859  000780  6ED9               	movwf	fsr2l,c
  2860  000782  0E01               	movlw	high (_READY_queue+81)
  2861  000784  202B               	addwfc	(btemp+1)^0,w,c
  2862  000786  6EDA               	movwf	fsr2h,c
  2863  000788  50DE               	movf	postinc2,w,c
  2864  00078A  10DE               	iorwf	postinc2,w,c
  2865  00078C  B4D8               	btfsc	status,2,c
  2866  00078E  EFCB  F003         	goto	i2u64_41
  2867  000792  EFCD  F003         	goto	i2u64_40
  2868  000796                     i2u64_41:
  2869  000796  EF0B  F004         	goto	i2l1631
  2870  00079A                     i2u64_40:
  2871  00079A  0E53               	movlw	83
  2872  00079C  6EE6               	movwf	postinc1,c
  2873  00079E  0E00               	movlw	0
  2874  0007A0  6EE6               	movwf	postinc1,c
  2875  0007A2  C018  FFE6         	movff	isr_INT0@i,postinc1
  2876  0007A6  C019  FFE6         	movff	isr_INT0@i+1,postinc1
  2877  0007AA  EC5E  F007         	call	___wmul	;wreg free
  2878  0007AE  0E24               	movlw	low (_READY_queue+81)
  2879  0007B0  242A               	addwf	btemp^0,w,c
  2880  0007B2  6ED9               	movwf	fsr2l,c
  2881  0007B4  0E01               	movlw	high (_READY_queue+81)
  2882  0007B6  202B               	addwfc	(btemp+1)^0,w,c
  2883  0007B8  6EDA               	movwf	fsr2h,c
  2884  0007BA  06DE               	decf	postinc2,f,c
  2885  0007BC  0E00               	movlw	0
  2886  0007BE  5ADD               	subwfb	postdec2,f,c
  2887  0007C0  0E53               	movlw	83
  2888  0007C2  6EE6               	movwf	postinc1,c
  2889  0007C4  0E00               	movlw	0
  2890  0007C6  6EE6               	movwf	postinc1,c
  2891  0007C8  C018  FFE6         	movff	isr_INT0@i,postinc1
  2892  0007CC  C019  FFE6         	movff	isr_INT0@i+1,postinc1
  2893  0007D0  EC5E  F007         	call	___wmul	;wreg free
  2894  0007D4  0E24               	movlw	low (_READY_queue+81)
  2895  0007D6  242A               	addwf	btemp^0,w,c
  2896  0007D8  6ED9               	movwf	fsr2l,c
  2897  0007DA  0E01               	movlw	high (_READY_queue+81)
  2898  0007DC  202B               	addwfc	(btemp+1)^0,w,c
  2899  0007DE  6EDA               	movwf	fsr2h,c
  2900  0007E0  50DE               	movf	postinc2,w,c
  2901  0007E2  10DE               	iorwf	postinc2,w,c
  2902  0007E4  A4D8               	btfss	status,2,c
  2903  0007E6  EFF7  F003         	goto	i2u65_41
  2904  0007EA  EFF9  F003         	goto	i2u65_40
  2905  0007EE                     i2u65_41:
  2906  0007EE  EF0B  F004         	goto	i2l1631
  2907  0007F2                     i2u65_40:
  2908  0007F2  0E53               	movlw	83
  2909  0007F4  6EE6               	movwf	postinc1,c
  2910  0007F6  0E00               	movlw	0
  2911  0007F8  6EE6               	movwf	postinc1,c
  2912  0007FA  C018  FFE6         	movff	isr_INT0@i,postinc1
  2913  0007FE  C019  FFE6         	movff	isr_INT0@i+1,postinc1
  2914  000802  EC5E  F007         	call	___wmul	;wreg free
  2915  000806  0ED7               	movlw	low (_READY_queue+4)
  2916  000808  242A               	addwf	btemp^0,w,c
  2917  00080A  6ED9               	movwf	fsr2l,c
  2918  00080C  0E00               	movlw	high (_READY_queue+4)
  2919  00080E  202B               	addwfc	(btemp+1)^0,w,c
  2920  000810  6EDA               	movwf	fsr2h,c
  2921  000812  0E00               	movlw	0
  2922  000814  6EDF               	movwf	indf2,c
  2923  000816                     i2l1631:
  2924  000816  4A18               	infsnz	isr_INT0@i^0,f,c
  2925  000818  2A19               	incf	(isr_INT0@i+1)^0,f,c
  2926  00081A                     i2l1633:
  2927  00081A  EE22  F01F         	lfsr	2,_READY_queue+332
  2928  00081E  50DE               	movf	postinc2,w,c
  2929  000820  5C18               	subwf	isr_INT0@i^0,w,c
  2930  000822  50DE               	movf	postinc2,w,c
  2931  000824  5819               	subwfb	(isr_INT0@i+1)^0,w,c
  2932  000826  A0D8               	btfss	status,0,c
  2933  000828  EF18  F004         	goto	i2u66_41
  2934  00082C  EF1A  F004         	goto	i2u66_40
  2935  000830                     i2u66_41:
  2936  000830  EFB4  F003         	goto	i2l1625
  2937  000834                     i2u66_40:
  2938  000834  0E00               	movlw	0
  2939  000836  6ED7               	movwf	215,c	;volatile
  2940  000838  0E40               	movlw	64
  2941  00083A  6ED6               	movwf	214,c	;volatile
  2942  00083C  94F2               	bcf	242,2,c	;volatile
  2943  00083E                     i2l122:
  2944  00083E  C00F  F035         	movff	??_isr_INT0+14,btemp+11
  2945  000842  C00E  F034         	movff	??_isr_INT0+13,btemp+10
  2946  000846  C00D  F033         	movff	??_isr_INT0+12,btemp+9
  2947  00084A  C00C  F032         	movff	??_isr_INT0+11,btemp+8
  2948  00084E  C00B  F02B         	movff	??_isr_INT0+10,btemp+1
  2949  000852  C00A  F02A         	movff	??_isr_INT0+9,btemp
  2950  000856  C009  FFF4         	movff	??_isr_INT0+8,prodh
  2951  00085A  C008  FFF3         	movff	??_isr_INT0+7,prodl
  2952  00085E  C007  FFDA         	movff	??_isr_INT0+6,fsr2h
  2953  000862  C006  FFD9         	movff	??_isr_INT0+5,fsr2l
  2954  000866  C005  FFE2         	movff	??_isr_INT0+4,fsr1h
  2955  00086A  C004  FFE1         	movff	??_isr_INT0+3,fsr1l
  2956  00086E  0011               	retfie		f
  2957  000870                     __end_of_isr_INT0:
  2958                           	callstack 0
  2959  0000                     
  2960                           	psect	rparam
  2961  0000                     
  2962                           	psect	temp
  2963  00002A                     btemp:
  2964                           	callstack 0
  2965  00002A                     	ds	32
  2966  0000                     wtemp0	set	btemp
  2967  0000                     wtemp1	set	btemp+2
  2968  0000                     wtemp2	set	btemp+4
  2969  0000                     wtemp3	set	btemp+6
  2970  0000                     wtemp4	set	btemp+8
  2971  0000                     wtemp5	set	btemp+10
  2972  0000                     wtemp8	set	btemp+1
  2973  0000                     ttemp0	set	btemp
  2974  0000                     ttemp1	set	btemp+3
  2975  0000                     ttemp2	set	btemp+6
  2976  0000                     ttemp3	set	btemp+9
  2977  0000                     ttemp5	set	btemp+1
  2978  0000                     ttemp6	set	btemp+4
  2979  0000                     ttemp7	set	btemp+8
  2980  0000                     ltemp0	set	btemp
  2981  0000                     ltemp1	set	btemp+4
  2982  0000                     ltemp2	set	btemp+8
  2983  0000                     lltemp0	set	btemp
  2984  0000                     lltemp1	set	btemp+8
  2985  0000                     lltemp2	set	btemp+16
  2986  0000                     lltemp3	set	btemp+24
  2987                           
  2988                           	psect	idloc
  2989                           
  2990                           ;Config register IDLOC0 @ 0x200000
  2991                           ;	unspecified, using default values
  2992  200000                     	org	2097152
  2993  200000  FF                 	db	255
  2994                           
  2995                           ;Config register IDLOC1 @ 0x200001
  2996                           ;	unspecified, using default values
  2997  200001                     	org	2097153
  2998  200001  FF                 	db	255
  2999                           
  3000                           ;Config register IDLOC2 @ 0x200002
  3001                           ;	unspecified, using default values
  3002  200002                     	org	2097154
  3003  200002  FF                 	db	255
  3004                           
  3005                           ;Config register IDLOC3 @ 0x200003
  3006                           ;	unspecified, using default values
  3007  200003                     	org	2097155
  3008  200003  FF                 	db	255
  3009                           
  3010                           ;Config register IDLOC4 @ 0x200004
  3011                           ;	unspecified, using default values
  3012  200004                     	org	2097156
  3013  200004  FF                 	db	255
  3014                           
  3015                           ;Config register IDLOC5 @ 0x200005
  3016                           ;	unspecified, using default values
  3017  200005                     	org	2097157
  3018  200005  FF                 	db	255
  3019                           
  3020                           ;Config register IDLOC6 @ 0x200006
  3021                           ;	unspecified, using default values
  3022  200006                     	org	2097158
  3023  200006  FF                 	db	255
  3024                           
  3025                           ;Config register IDLOC7 @ 0x200007
  3026                           ;	unspecified, using default values
  3027  200007                     	org	2097159
  3028  200007  FF                 	db	255
  3029                           
  3030                           	psect	config
  3031                           
  3032                           ; Padding undefined space
  3033  300000                     	org	3145728
  3034  300000  FF                 	db	255
  3035                           
  3036                           ;Config register CONFIG1H @ 0x300001
  3037                           ;	unspecified, using default values
  3038                           ;	Oscillator Selection bits
  3039                           ;	OSC = 0x7, unprogrammed default
  3040                           ;	Fail-Safe Clock Monitor Enable bit
  3041                           ;	FCMEN = 0x0, unprogrammed default
  3042                           ;	Internal/External Oscillator Switchover bit
  3043                           ;	IESO = 0x0, unprogrammed default
  3044  300001                     	org	3145729
  3045  300001  07                 	db	7
  3046                           
  3047                           ;Config register CONFIG2L @ 0x300002
  3048                           ;	unspecified, using default values
  3049                           ;	Power-up Timer Enable bit
  3050                           ;	PWRT = 0x1, unprogrammed default
  3051                           ;	Brown-out Reset Enable bits
  3052                           ;	BOREN = 0x3, unprogrammed default
  3053                           ;	Brown Out Reset Voltage bits
  3054                           ;	BORV = 0x3, unprogrammed default
  3055  300002                     	org	3145730
  3056  300002  1F                 	db	31
  3057                           
  3058                           ;Config register CONFIG2H @ 0x300003
  3059                           ;	unspecified, using default values
  3060                           ;	Watchdog Timer Enable bit
  3061                           ;	WDT = 0x1, unprogrammed default
  3062                           ;	Watchdog Timer Postscale Select bits
  3063                           ;	WDTPS = 0xF, unprogrammed default
  3064  300003                     	org	3145731
  3065  300003  1F                 	db	31
  3066                           
  3067                           ; Padding undefined space
  3068  300004                     	org	3145732
  3069  300004  FF                 	db	255
  3070                           
  3071                           ;Config register CONFIG3H @ 0x300005
  3072                           ;	CCP2 MUX bit
  3073                           ;	CCP2MX = 0x1, unprogrammed default
  3074                           ;	PORTB A/D Enable bit
  3075                           ;	PBADEN = OFF, PORTB<4:0> pins are configured as digital I/O on Reset
  3076                           ;	Low-Power Timer1 Oscillator Enable bit
  3077                           ;	LPT1OSC = 0x0, unprogrammed default
  3078                           ;	MCLR Pin Enable bit
  3079                           ;	MCLRE = 0x1, unprogrammed default
  3080  300005                     	org	3145733
  3081  300005  81                 	db	129
  3082                           
  3083                           ;Config register CONFIG4L @ 0x300006
  3084                           ;	unspecified, using default values
  3085                           ;	Stack Full/Underflow Reset Enable bit
  3086                           ;	STVREN = 0x1, unprogrammed default
  3087                           ;	Single-Supply ICSP Enable bit
  3088                           ;	LVP = 0x1, unprogrammed default
  3089                           ;	Extended Instruction Set Enable bit
  3090                           ;	XINST = 0x0, unprogrammed default
  3091                           ;	Background Debugger Enable bit
  3092                           ;	DEBUG = 0x1, unprogrammed default
  3093  300006                     	org	3145734
  3094  300006  85                 	db	133
  3095                           
  3096                           ; Padding undefined space
  3097  300007                     	org	3145735
  3098  300007  FF                 	db	255
  3099                           
  3100                           ;Config register CONFIG5L @ 0x300008
  3101                           ;	unspecified, using default values
  3102                           ;	Code Protection bit
  3103                           ;	CP0 = 0x1, unprogrammed default
  3104                           ;	Code Protection bit
  3105                           ;	CP1 = 0x1, unprogrammed default
  3106                           ;	Code Protection bit
  3107                           ;	CP2 = 0x1, unprogrammed default
  3108                           ;	Code Protection bit
  3109                           ;	CP3 = 0x1, unprogrammed default
  3110  300008                     	org	3145736
  3111  300008  0F                 	db	15
  3112                           
  3113                           ;Config register CONFIG5H @ 0x300009
  3114                           ;	unspecified, using default values
  3115                           ;	Boot Block Code Protection bit
  3116                           ;	CPB = 0x1, unprogrammed default
  3117                           ;	Data EEPROM Code Protection bit
  3118                           ;	CPD = 0x1, unprogrammed default
  3119  300009                     	org	3145737
  3120  300009  C0                 	db	192
  3121                           
  3122                           ;Config register CONFIG6L @ 0x30000A
  3123                           ;	unspecified, using default values
  3124                           ;	Write Protection bit
  3125                           ;	WRT0 = 0x1, unprogrammed default
  3126                           ;	Write Protection bit
  3127                           ;	WRT1 = 0x1, unprogrammed default
  3128                           ;	Write Protection bit
  3129                           ;	WRT2 = 0x1, unprogrammed default
  3130                           ;	Write Protection bit
  3131                           ;	WRT3 = 0x1, unprogrammed default
  3132  30000A                     	org	3145738
  3133  30000A  0F                 	db	15
  3134                           
  3135                           ;Config register CONFIG6H @ 0x30000B
  3136                           ;	unspecified, using default values
  3137                           ;	Configuration Register Write Protection bit
  3138                           ;	WRTC = 0x1, unprogrammed default
  3139                           ;	Boot Block Write Protection bit
  3140                           ;	WRTB = 0x1, unprogrammed default
  3141                           ;	Data EEPROM Write Protection bit
  3142                           ;	WRTD = 0x1, unprogrammed default
  3143  30000B                     	org	3145739
  3144  30000B  E0                 	db	224
  3145                           
  3146                           ;Config register CONFIG7L @ 0x30000C
  3147                           ;	unspecified, using default values
  3148                           ;	Table Read Protection bit
  3149                           ;	EBTR0 = 0x1, unprogrammed default
  3150                           ;	Table Read Protection bit
  3151                           ;	EBTR1 = 0x1, unprogrammed default
  3152                           ;	Table Read Protection bit
  3153                           ;	EBTR2 = 0x1, unprogrammed default
  3154                           ;	Table Read Protection bit
  3155                           ;	EBTR3 = 0x1, unprogrammed default
  3156  30000C                     	org	3145740
  3157  30000C  0F                 	db	15
  3158                           
  3159                           ;Config register CONFIG7H @ 0x30000D
  3160                           ;	unspecified, using default values
  3161                           ;	Boot Block Table Read Protection bit
  3162                           ;	EBTRB = 0x1, unprogrammed default
  3163  30000D                     	org	3145741
  3164  30000D  40                 	db	64
  3165                           tosu	equ	0xFFF
  3166                           tosh	equ	0xFFE
  3167                           tosl	equ	0xFFD
  3168                           stkptr	equ	0xFFC
  3169                           pclatu	equ	0xFFB
  3170                           pclath	equ	0xFFA
  3171                           pcl	equ	0xFF9
  3172                           tblptru	equ	0xFF8
  3173                           tblptrh	equ	0xFF7
  3174                           tblptrl	equ	0xFF6
  3175                           tablat	equ	0xFF5
  3176                           prodh	equ	0xFF4
  3177                           prodl	equ	0xFF3
  3178                           indf0	equ	0xFEF
  3179                           postinc0	equ	0xFEE
  3180                           postdec0	equ	0xFED
  3181                           preinc0	equ	0xFEC
  3182                           plusw0	equ	0xFEB
  3183                           fsr0h	equ	0xFEA
  3184                           fsr0l	equ	0xFE9
  3185                           wreg	equ	0xFE8
  3186                           indf1	equ	0xFE7
  3187                           postinc1	equ	0xFE6
  3188                           postdec1	equ	0xFE5
  3189                           preinc1	equ	0xFE4
  3190                           plusw1	equ	0xFE3
  3191                           fsr1h	equ	0xFE2
  3192                           fsr1l	equ	0xFE1
  3193                           bsr	equ	0xFE0
  3194                           indf2	equ	0xFDF
  3195                           postinc2	equ	0xFDE
  3196                           postdec2	equ	0xFDD
  3197                           preinc2	equ	0xFDC
  3198                           plusw2	equ	0xFDB
  3199                           fsr2h	equ	0xFDA
  3200                           fsr2l	equ	0xFD9
  3201                           status	equ	0xFD8

Data Sizes:
    Strings     0
    Constant    0
    Data        0
    BSS         352
    Persistent  0
    Stack       0

Auto Spaces:
    Space          Size  Autos    Used
    COMRAM           95     41      55
    BANK0           128     83      83
    BANK1           256      0       0
    BANK2           256      0       0
    BANK3           256      0       0
    BANK4           256      0       0
    BANK5           256      0       0

Pointer List with Targets:

    sem_init@sem	PTR struct sem size(2) Largest target is 14
		 -> s(COMRAM[14]), 

    READY_queue.tasks.task_f	PTR FTN()void  size(2) Largest target is 1
		 -> aciona_led_3(), aciona_led_2(), aciona_led_1(), 

    new_task@f	PTR FTN()void  size(2) Largest target is 1
		 -> aciona_led_3(), aciona_led_2(), aciona_led_1(), 

    S76tcb$task_f	PTR FTN()void  size(2) Largest target is 1
		 -> aciona_led_3(), aciona_led_2(), aciona_led_1(), 

    new_task.task_f	PTR FTN()void  size(2) Largest target is 1
		 -> aciona_led_3(), aciona_led_2(), aciona_led_1(), 


Critical Paths under _main in COMRAM

    _main->_new_task
    _user_config->_sem_init

Critical Paths under _aciona_led_1 in COMRAM

    None.

Critical Paths under _aciona_led_2 in COMRAM

    None.

Critical Paths under _aciona_led_3 in COMRAM

    None.

Critical Paths under _aciona_led_1 in COMRAM

    None.

Critical Paths under _aciona_led_2 in COMRAM

    None.

Critical Paths under _aciona_led_3 in COMRAM

    None.

Critical Paths under _isr_INT0 in COMRAM

    None.

Critical Paths under _main in BANK0

    _main->_new_task

Critical Paths under _aciona_led_1 in BANK0

    None.

Critical Paths under _aciona_led_2 in BANK0

    None.

Critical Paths under _aciona_led_3 in BANK0

    None.

Critical Paths under _aciona_led_1 in BANK0

    None.

Critical Paths under _aciona_led_2 in BANK0

    None.

Critical Paths under _aciona_led_3 in BANK0

    None.

Critical Paths under _isr_INT0 in BANK0

    None.

Critical Paths under _main in BANK1

    None.

Critical Paths under _aciona_led_1 in BANK1

    None.

Critical Paths under _aciona_led_2 in BANK1

    None.

Critical Paths under _aciona_led_3 in BANK1

    None.

Critical Paths under _aciona_led_1 in BANK1

    None.

Critical Paths under _aciona_led_2 in BANK1

    None.

Critical Paths under _aciona_led_3 in BANK1

    None.

Critical Paths under _isr_INT0 in BANK1

    None.

Critical Paths under _main in BANK2

    None.

Critical Paths under _aciona_led_1 in BANK2

    None.

Critical Paths under _aciona_led_2 in BANK2

    None.

Critical Paths under _aciona_led_3 in BANK2

    None.

Critical Paths under _aciona_led_1 in BANK2

    None.

Critical Paths under _aciona_led_2 in BANK2

    None.

Critical Paths under _aciona_led_3 in BANK2

    None.

Critical Paths under _isr_INT0 in BANK2

    None.

Critical Paths under _main in BANK3

    None.

Critical Paths under _aciona_led_1 in BANK3

    None.

Critical Paths under _aciona_led_2 in BANK3

    None.

Critical Paths under _aciona_led_3 in BANK3

    None.

Critical Paths under _aciona_led_1 in BANK3

    None.

Critical Paths under _aciona_led_2 in BANK3

    None.

Critical Paths under _aciona_led_3 in BANK3

    None.

Critical Paths under _isr_INT0 in BANK3

    None.

Critical Paths under _main in BANK4

    None.

Critical Paths under _aciona_led_1 in BANK4

    None.

Critical Paths under _aciona_led_2 in BANK4

    None.

Critical Paths under _aciona_led_3 in BANK4

    None.

Critical Paths under _aciona_led_1 in BANK4

    None.

Critical Paths under _aciona_led_2 in BANK4

    None.

Critical Paths under _aciona_led_3 in BANK4

    None.

Critical Paths under _isr_INT0 in BANK4

    None.

Critical Paths under _main in BANK5

    None.

Critical Paths under _aciona_led_1 in BANK5

    None.

Critical Paths under _aciona_led_2 in BANK5

    None.

Critical Paths under _aciona_led_3 in BANK5

    None.

Critical Paths under _aciona_led_1 in BANK5

    None.

Critical Paths under _aciona_led_2 in BANK5

    None.

Critical Paths under _aciona_led_3 in BANK5

    None.

Critical Paths under _isr_INT0 in BANK5

    None.

Call Graph Tables:

 ---------------------------------------------------------------------------------
 (Depth) Function   	        Calls       Base Space   Used Autos Params    Refs
 ---------------------------------------------------------------------------------
 (0) _main                                                 0     0      0    4772
                      _hardware_init
                       _kernel_start
                           _new_task
                            _os_init
                        _user_config
 ---------------------------------------------------------------------------------
 (1) _user_config                                          0     0      0     240
                           _sem_init
 ---------------------------------------------------------------------------------
 (2) _sem_init                                             4     0      4     240
                                             33 COMRAM     4     0      4
 ---------------------------------------------------------------------------------
 (1) _os_init                                              0     0      0       0
 ---------------------------------------------------------------------------------
 (1) _new_task                                            91    85      6    4532
                                             33 COMRAM     8     2      6
                                              0 BANK0     83    83      0
                             ___wmul
 ---------------------------------------------------------------------------------
 (9) ___wmul                                               6     2      4    3639
 ---------------------------------------------------------------------------------
 (1) _kernel_start                                         0     0      0       0
 ---------------------------------------------------------------------------------
 (1) _hardware_init                                        0     0      0       0
 ---------------------------------------------------------------------------------
 (Depth) Function   	        Calls       Base Space   Used Autos Params    Refs
 ---------------------------------------------------------------------------------
 (3) _aciona_led_1                                         0     0      0       0
 ---------------------------------------------------------------------------------
 (Depth) Function   	        Calls       Base Space   Used Autos Params    Refs
 ---------------------------------------------------------------------------------
 (3) _aciona_led_2                                         0     0      0       0
 ---------------------------------------------------------------------------------
 (Depth) Function   	        Calls       Base Space   Used Autos Params    Refs
 ---------------------------------------------------------------------------------
 (3) _aciona_led_3                                         0     0      0     498
                         _task_delay
 ---------------------------------------------------------------------------------
 (4) _task_delay                                          10     8      2     498
                          _scheduler
 ---------------------------------------------------------------------------------
 (9) _scheduler                                            0     0      0     172
                       _RR_scheduler
 ---------------------------------------------------------------------------------
 (10) _RR_scheduler                                        2     2      0     172
                            ___lwmod
 ---------------------------------------------------------------------------------
 (11) ___lwmod                                             5     1      4     127
 ---------------------------------------------------------------------------------
 (Depth) Function   	        Calls       Base Space   Used Autos Params    Refs
 ---------------------------------------------------------------------------------
 (3) _aciona_led_1                                         0     0      0       0
 ---------------------------------------------------------------------------------
 (Depth) Function   	        Calls       Base Space   Used Autos Params    Refs
 ---------------------------------------------------------------------------------
 (3) _aciona_led_2                                         0     0      0       0
 ---------------------------------------------------------------------------------
 (Depth) Function   	        Calls       Base Space   Used Autos Params    Refs
 ---------------------------------------------------------------------------------
 (3) _aciona_led_3                                         0     0      0     498
                         _task_delay
 ---------------------------------------------------------------------------------
 (4) _task_delay                                          10     8      2     498
                          _scheduler
 ---------------------------------------------------------------------------------
 (9) _scheduler                                            0     0      0     172
                       _RR_scheduler
 ---------------------------------------------------------------------------------
 (10) _RR_scheduler                                        2     2      0     172
                            ___lwmod
 ---------------------------------------------------------------------------------
 (11) ___lwmod                                             5     1      4     127
 ---------------------------------------------------------------------------------
 (Depth) Function   	        Calls       Base Space   Used Autos Params    Refs
 ---------------------------------------------------------------------------------
 (8) _isr_INT0                                            33    33      0    4815
                                              0 COMRAM    33    33      0
                             ___wmul
                          _scheduler
 ---------------------------------------------------------------------------------
 (9) _scheduler                                            0     0      0     172
                       _RR_scheduler
 ---------------------------------------------------------------------------------
 (10) _RR_scheduler                                        2     2      0     172
                            ___lwmod
 ---------------------------------------------------------------------------------
 (11) ___lwmod                                             5     1      4     127
 ---------------------------------------------------------------------------------
 (9) ___wmul                                               6     2      4    3639
 ---------------------------------------------------------------------------------
 Estimated maximum stack depth 11
 ---------------------------------------------------------------------------------

 Call Graph Graphs:

 _main (ROOT)
   _hardware_init
   _kernel_start
   _new_task
     ___wmul
   _os_init
   _user_config
     _sem_init

 _aciona_led_1 (ROOT)

 _aciona_led_2 (ROOT)

 _aciona_led_3 (ROOT)
   _task_delay
     _scheduler
       _RR_scheduler
         ___lwmod

 _aciona_led_1 (ROOT)

 _aciona_led_2 (ROOT)

 _aciona_led_3 (ROOT)
   _task_delay
     _scheduler
       _RR_scheduler
         ___lwmod

 _isr_INT0 (ROOT)
   ___wmul
   _scheduler
     _RR_scheduler
       ___lwmod

 Address spaces:
Name               Size   Autos  Total    Cost      Usage
BIGRAM             5FF      0     152      17       22.0%
EEDATA             100      0       0       0        0.0%
BITBANK5           100      0       0      16        0.0%
BANK5              100      0       0      14        0.0%
BITBANK4           100      0       0      12        0.0%
BANK4              100      0       0      13        0.0%
BITBANK3           100      0       0      10        0.0%
BANK3              100      0       0      11        0.0%
BITBANK2           100      0       0       8        0.0%
BANK2              100      0       0       9        0.0%
BITBANK1           100      0       0       6        0.0%
BANK1              100      0       0       7        0.0%
BITBANK0            80      0       0       4        0.0%
BANK0               80     53      53       5       64.8%
BITCOMRAM           5F      0       0       0        0.0%
COMRAM              5F     29      37       1       57.9%
BITSFR               0      0       0     200        0.0%
SFR                  0      0       0     200        0.0%
STACK                0      0       4       2        0.0%
NULL                 0      0       0       0        0.0%
ABS                  0      0      8A      15        0.0%
DATA                 0      0     1E0       3        0.0%
CODE                 0      0       0       0        0.0%


Microchip Technology PIC18 Macro Assembler V2.20 build 20200408173844 
Symbol Table                                                                                   Mon Oct 17 15:54:49 2022

                          _s 004A                           l21 102A                           l22 102A  
                         l52 1162                           l70 0CBC                           l71 0C10  
                         l55 1192                           l49 1118                           l58 0FC4  
                         l75 0D30                          l134 0EB6                          l152 117E  
                        l129 118C                          l161 10A6                          l155 111A  
                        l260 0F48                          l167 1070                          l191 106E  
                        l941 0D82                          l933 0D3C                          l943 0D92  
                        l935 0D56                          l951 0E0C                          l768 0E18  
                        l945 0DC0                          l937 0D60                          l961 0EAA  
                        l947 0DE4                          l939 0D7E                          l955 0E26  
                        l949 0DEE                          l957 0E32                          l959 0E70  
                        l975 10F4                          l977 1140                          l979 1152  
                        l999 118E                          _BSR 000FE0                          u501 0FB2  
                        _TOS 000FFD         isr_INT0@pos_task_312 001E         isr_INT0@pos_task_314 001C  
       isr_INT0@pos_task_316 0020                          wreg 000FE8                         l1011 08BA  
                       l1021 0974                         l1013 08C6                         l1031 0A8A  
                       l1023 09B2                         l1015 08CE                         l1007 0878  
                       l1041 0B36                         l1025 09EE                         l1017 0908  
                       l1033 0ACA                         l1009 087A                         l1051 0C12  
                       l1043 0B64                         l1035 0ACE                         l1027 0A5A  
                       l1019 0936                         l1061 0D2E                         l1053 0C32  
                       l1045 0B94                         l1037 0ADA                         l1029 0A7A  
                       l1063 1180                         l1055 0C9E                         l1047 0B96  
                       l1039 0B08                         l1231 111A                         l1057 0CBE  
                       l1049 0BD2                         l1233 10A6                         l1059 0D2C  
                       l1235 1070                         l1237 1094                         l1441 1034  
                       l1443 1044                         l1451 116A                         l1461 0F78  
                       l1453 0F52                         l1445 1058                         l1463 0F80  
                       l1455 0F62                         l1447 106C                         l1439 1032  
                       l1481 0F3C                         l1465 0FBA                         l1457 0F68  
                       l1449 1164                         l1475 0EC0                         l1459 0F70  
                       l1491 0FD2                         l1477 0ED8                         l1493 0FEE  
                       l1485 0FC6                         l1479 0F0A                         l1495 100A  
                       l1487 0FCA                         l1497 1026                         l1489 0FCE  
                       i2l93 0058                         i2l95 0156                         i2l99 035E  
                       _TMR0 000FD6                         _WREG 000FE8                         u1_20 0D56  
                       u1_21 0D52                         u2_20 0D92                         u2_21 0D8E  
                       u3_20 0DC0                         u3_21 0DBC                         u4_20 0E0C  
                       u4_21 0E08                         u5_20 0EAA                         u5_21 0EA6  
                       u7_20 0908                         u7_21 0904                         u8_20 0A8A  
                       u8_21 0A86                         u9_20 0BD2                         u9_21 0BCE  
                _user_config 1164                         _main 0FC6                         fsr1h 000FE2  
                       fsr2h 000FDA                         fsr0l 000FE9                         indf2 000FDF  
                       fsr1l 000FE1                         fsr2l 000FD9                         btemp 002A  
                       prodh 000FF4                         prodl 000FF3                         start 000C  
               ___param_bank 000000         __end_of_RR_scheduler 0EBC                        ?_main 0001  
                      i2l100 02E8                        i2l112 06F2                        i2l113 067C  
            __end_of___lwmod 0E22                        i2l106 03EC                        i2l122 083E  
                      i2l108 04EA                        u10_20 0CB8                        u10_21 0CB4  
            ??_hardware_init 0022                        u27_20 112A                        u27_21 1124  
                      u27_26 112C                        u28_20 10B6                        u28_21 10B0  
                      u28_26 10B8                        u29_20 1080                        u29_21 107A  
                      u29_26 1082              __end_of_os_init 111A                        ltemp0 002A  
                      ltemp1 002E                        ltemp2 0032                        plusw0 000FEB  
                      plusw1 000FE3                        plusw2 000FDB                        ttemp0 002A  
                      ttemp1 002D                        ttemp2 0030                        ttemp3 0033  
                      ttemp5 002B                        ttemp6 002E                        ttemp7 0032  
                      status 000FD8                        wtemp0 002A                        wtemp1 002C  
                      wtemp2 002E                        wtemp3 0030                        wtemp4 0032  
                      wtemp5 0034                        wtemp8 002B              __initialization 10CE  
               __end_of_main 1032        __size_of_aciona_led_1 0026        __size_of_aciona_led_2 0028  
      __size_of_aciona_led_3 0036                       ??_main 002A                __activetblptr 000000  
              ?_kernel_start 0001                       i2l1601 05D4                       i2l1611 067E  
                     i2l1603 05F8                       i2l1621 0750                       i2l1613 0684  
                     i2l1605 061E                       i2l1541 01AE                       i2l1533 004A  
                     i2l1631 0816                       i2l1615 06DC                       i2l1607 0622  
                     i2l1623 075C                       i2l1551 01F8                       i2l1543 01B4  
                     i2l1535 0060                       i2l1625 0768                       i2l1633 081A  
                     i2l1617 06F4                       i2l1609 0654                       i2l1561 028E  
                     i2l1553 021C                       i2l1545 01C4                       i2l1537 0068  
                     i2l1635 0834                       i2l1627 079A                       i2l1619 074E  
                     i2l1571 0360                       i2l1563 02C0                       i2l1555 0240  
                     i2l1539 0098                       i2l1547 01EC                       i2l1637 083C  
                     i2l1629 07F2                       i2l1581 03F4                       i2l1573 03BA  
                     i2l1565 02EA                       i2l1557 0264                       i2l1549 01F0  
                     i2l1591 0558                       i2l1583 03FC                       i2l1575 03BC  
                     i2l1567 02F0                       i2l1559 028A                       i2l1585 042C  
                     i2l1593 0580                       i2l1569 0348                       i2l1577 03BE  
                     i2l1595 0584                       i2l1587 0542                       i2l1579 03CC  
                     i2l1597 058C                       i2l1589 0548                       i2l1599 05B0  
                     _STATUS 000FD8                       _STKPTR 000FFC                 _aciona_led_1 111A  
               _aciona_led_2 10A6                 _aciona_led_3 1070                       ___wmul 0EBC  
           __end_of_isr_INT0 0870                       clear_0 10D6                       clear_1 10E8  
           __end_of_new_task 0FC6             __end_of_sem_init 1070               ??_kernel_start 0022  
                     lltemp0 002A                       lltemp1 0032                       lltemp2 003A  
                     lltemp3 0042                    ??_os_init 0022                   __accesstop 0080  
    __end_of__initialization 10EE                ___rparam_used 000001        __size_of_RR_scheduler 009A  
             __pcstackCOMRAM 0001                   ___inthi_sp 036E                 ?_user_config 0001  
               _RR_scheduler 0E22           __size_of_scheduler 000E                      i2u60_40 042C  
                    i2u60_41 0428                      i2u61_40 0558                      i2u53_40 0058  
                    i2u61_41 0554                      i2u53_41 0054                      i2u62_40 0654  
                    i2u54_40 0098                      i2u62_41 0650                      i2u54_41 0094  
                    i2u63_40 06EE                      i2u55_40 01C4                      i2u63_41 06EA  
                    i2u55_41 01C0                      i2u64_40 079A                      i2u56_40 02C0  
                    i2u64_41 0796                      i2u56_41 02BC                      i2u65_40 07F2  
                    i2u57_40 035A                      i2u65_41 07EE                      i2u57_41 0356  
                    i2u66_40 0834                      i2u58_40 03CC                      i2u66_41 0830  
                    i2u58_41 03C8                      i2u59_40 03EC                      i2u59_41 03E8  
                sem_init@sem 0022                    ?_isr_INT0 0001                    ?_new_task 0022  
                    __Hparam 0000                    ?_sem_init 0022         __end_of_kernel_start 1194  
                    __Lparam 0000              __size_of___wmul 0096                      ___lwmod 0D3A  
                    __pcinit 10CE                      __ramtop 0600                      __ptext0 0FC6  
                    __ptext1 1164                      __ptext2 1032                      __ptext3 10F4  
                    __ptext4 0F52                      __ptext5 0EBC                      __ptext6 118E  
                    __ptext7 1140                      __ptext8 111A                      __ptext9 10A6  
                  _T0CONbits 000FD5        __end_of_hardware_init 1164                      _os_init 10F4  
          __end_of_scheduler 118E               __pintcode_body 0014         end_of_initialization 10EE  
                 ??_isr_INT0 0001                      int_func 0014                   ??_new_task 0028  
                 _task_delay 0870                   ??_sem_init 0026                      postdec0 000FED  
                    postdec1 000FE5                      postdec2 000FDD                      postinc0 000FEE  
                    postinc1 000FE6                      postinc2 000FDE                    _PORTDbits 000F83  
                  _TRISDbits 000F95                sem_init@value 0024         __size_of_user_config 001C  
             __end_of___wmul 0F52          start_initialization 10CE        __size_of_kernel_start 0006  
                __pbssBIGRAM 00D3                  __pbssCOMRAM 004A                __pcstackBANK0 0080  
               _kernel_start 118E              fp__aciona_led_1 000C              fp__aciona_led_2 000C  
            fp__aciona_led_3 000C      isr_INT0@task_stack_size 0010                   new_task@id 0022  
          __size_of_isr_INT0 0868            __size_of_new_task 0074                    __pintcode 0008  
          __size_of_sem_init 003E             new_task@new_task 0080          __size_of_task_delay 04CA  
                   ?_os_init 0001                    _scheduler 1180                     _LATDbits 000F8C  
                _INTCON2bits 000FF1                    isr_INT0@i 0018                     __Hrparam 0000  
                   __Lrparam 0000       __size_of_hardware_init 0024                  _READY_queue 00D3  
           __size_of___lwmod 00E8                    new_task@f 0026           new_task@prioridade 0024  
                   __ptext10 1070                     __ptext11 0870                     __ptext12 1180  
                   __ptext13 0E22                     __ptext14 0D3A             __size_of_os_init 0026  
              ??_user_config 0026                     _isr_INT0 0008                __size_of_main 006C  
                   _new_task 0F52                     _sem_init 1032                   _INTCONbits 000FF2  
         __end_of_task_delay 0D3A                _hardware_init 1140  isr_INT0@task_stack_size_313 0012  
isr_INT0@task_stack_size_315 0014  isr_INT0@task_stack_size_317 0016                     intlevel1 0000  
                   intlevel2 0000          __end_of_user_config 1180             isr_INT0@pos_task 001A  
       __end_of_aciona_led_1 1140         __end_of_aciona_led_2 10CE         __end_of_aciona_led_3 10A6  
             ?_hardware_init 0001  
